cdebian_linux.config
ConfigCore
p0
(tRp1
(Vabi
p2
tp3
(dp4
Vabiname
p5
Vkali2
p6
sVignore-changes
p7
(lp8
V__cpuhp_*
p9
aV__udp_gso_segment
p10
aVbpf_analyzer
p11
aVbpf_offload_dev_create
p12
aVbpf_verifier_log_write
p13
aVcxl_*
p14
aVdax_flush
p15
aVieee80211_nullfunc_get
p16
aVinet_add_protocol
p17
aVinet_del_protocol
p18
aViommu_device_*
p19
aVmm_iommu_*
p20
aVmv_mbus_*
p21
aVperf_*
p22
aVregister_cxl_calls
p23
aVregister_key_type
p24
aVunregister_cxl_calls
p25
aV*_hw_breakpoint
p26
aVmodule:drivers/crypto/ccp/*
p27
aVmodule:drivers/hv/*
p28
aVmodule:drivers/gpu/drm/sun4i/*
p29
aVmodule:drivers/iio/**
p30
aVmodule:drivers/misc/cxl/*
p31
aVmodule:drivers/misc/lis3lv02d/*
p32
aVmodule:drivers/mtd/nand/*
p33
aVmodule:drivers/net/ethernet/**
p34
aVmodule:drivers/net/wireless/**
p35
aVmodule:drivers/nvdimm/*
p36
aVmodule:drivers/nvme/**
p37
aVmodule:drivers/power/supply/bq27xxx_battery
p38
aVmodule:drivers/scsi/cxgbi/*
p39
aVmodule:drivers/scsi/libiscs*
p40
aVmodule:drivers/scsi/qla2xxx/qla2xxx
p41
aVmodule:drivers/scsi/ufs/*
p42
aVmodule:drivers/target/**
p43
aVmodule:drivers/usb/chipidea/**
p44
aVmodule:drivers/usb/gadget/**
p45
aVmodule:drivers/usb/host/**
p46
aVmodule:drivers/usb/musb/**
p47
aVmodule:fs/nfs/**
p48
aVmodule:net/ceph/libceph
p49
aVmodule:net/l2tp/**
p50
aVmodule:net/openvswitch/**
p51
aVmodule:net/rxrpc/rxrpc
p52
aVmodule:net/sctp/**
p53
aVmodule:sound/core/seq/**
p54
aVmodule:sound/firewire/snd-firewire-lib
p55
aVmodule:sound/pci/hda/*
p56
aVbtree_*
p57
aVvisitor*
p58
aVcan_rx_register
p59
aVip6_xmit
p60
aVmodule:net/dccp/dccp
p61
aVmodule:net/rds/rds
p62
aVdevfreq_*
p63
aVdevm_devfreq_*
p64
aVupdate_devfreq
p65
aVmodule:drivers/infiniband/**
p66
aVacpi_ec_add_query_handler
p67
aVacpi_ec_remove_query_handler
p68
aVfirst_ec
p69
aVdebugfs_create_automount
p70
aVmodule:drivers/iio/imu/inv_mpu6050/*
p71
aVdrm_crtc_accurate_vblank_count
p72
aVacpi_nfit_desc_init
p73
aVacpi_nfit_init
p74
aVloop_register_transfer
p75
aVxen_xlate_*
p76
aVnf_nat_masquerade_ipv4_register_notifier
p77
aVnf_nat_masquerade_ipv6_register_notifier
p78
aVdfltcc_*
p79
aVmodule:drivers/scsi/hisi_sas/*
p80
aV__gfn_*
p81
aV__kvmhv_*
p82
aV__kvm_*
p83
aV__xive_vm_h_*
p84
aVgfn_*
p85
aVh_ipi_redirect
p86
aVhalt_poll_ns*
p87
aVkvm_*
p88
aVkvmhv_*
p89
aVkvmppc_*
p90
aVmark_page_dirty
p91
aVvcpu_*
p92
aVmodule:arch/powerpc/kvm/*
p93
aVmodule:arch/s390/kvm/*
p94
aVmodule:arch/x86/kvm/*
p95
aVuv_info
p96
aVxhci_init_driver
p97
aVcheck_var_size
p98
aVcheck_var_size_nonblocking
p99
aVremove_conflicting_pci_framebuffers
p100
aVahci_fill_cmd_slot
p101
aVphylink_create
p102
aVphylink_generic_validate
p103
ass(Vbase
p104
tp105
(dp106
Varches
p107
(lp108
Valpha
p109
aVamd64
p110
aVarm64
p111
aVarm64ilp32
p112
aVarmel
p113
aVarmhf
p114
aVhppa
p115
aVi386
p116
aVia64
p117
aVm68k
p118
aVmips
p119
aVmips64
p120
aVmips64el
p121
aVmips64r6
p122
aVmips64r6el
p123
aVmipsel
p124
aVmipsn32
p125
aVmipsn32el
p126
aVmipsn32r6
p127
aVmipsn32r6el
p128
aVmipsr6
p129
aVmipsr6el
p130
aVpowerpc
p131
aVppc64
p132
aVppc64el
p133
aVriscv64
p134
aVs390
p135
aVs390x
p136
aVsh3
p137
aVsh4
p138
aVsparc
p139
aVsparc64
p140
aVx32
p141
asVcompiler
p142
Vgcc-12
p143
sVfeaturesets
p144
(lp145
Vnone
p146
aVrt
p147
ass(Vbuild
p148
tp149
(dp150
Vsigned-code
p151
I00
sVtrusted-certs
p152
Vdebian/certs/debian-uefi-certs.pem
p153
ss(Vbase
p154
NVrt
p155
tp156
(dp157
Venabled
p158
I01
ss(Vdescription
p159
tp160
(dp161
Vpart-long-up
p162
VThis kernel is not suitable for SMP (multi-processor,\u000amulti-core or hyper-threaded) systems.
p163
ss(Vimage
p164
tp165
(dp166
Vinitramfs-generators
p167
(lp168
Vinitramfs-tools
p169
aVinitramfs-fallback
p170
asVbreaks
p171
(lp172
Vfwupdate (<< 12-7)
p173
aVwireless-regdb (<< 2019.06.03-1~)
p174
asVrecommends
p175
(lp176
Vapparmor
p177
ass(Vrelations
p178
tp179
(dp180
Vgcc-12
p181
Vgcc-12 <!stage1 !cross !pkg.linux.nokernel>, gcc-12-@gnu-type-package@ <!stage1 cross !pkg.linux.nokernel>
p182
sVinitramfs-fallback
p183
Vlinux-initramfs-tool
p184
sVinitramfs-tools
p185
Vinitramfs-tools (>= 0.120+deb8u2)
p186
ss(Vbase
p187
Valpha
p188
tp189
(dp190
Vdefault-flavour
p191
Valpha-smp
p192
sVkernel-arch
p193
Valpha
p194
sVfeaturesets
p195
(lp196
Vnone
p197
ass(Vbuild
p198
g188
tp199
(dp200
Vimage-file
p201
Varch/alpha/boot/vmlinux.gz
p202
ss(Vimage
p203
g188
tp204
(dp205
Vsuggests
p206
(lp207
Vaboot
p208
aVfdutils
p209
asVinstall-stem
p210
Vvmlinuz
p211
ss(Vdescription
p212
g188
NValpha-generic
p213
tp214
(dp215
Vhardware
p216
VAlpha
p217
sVhardware-long
p218
VDEC Alpha systems with extended kernel start address (Wildfire, Titan, Marvel)
p219
ss(Vdescription
p220
g188
NValpha-smp
p221
tp222
(dp223
Vhardware
p224
VAlpha SMP
p225
sVhardware-long
p226
VDEC Alpha SMP systems with extended kernel start address (Wildfire, Titan, Marvel)
p227
ss(Vbase
p228
g188
g197
tp229
(dp230
Vflavours
p231
(lp232
Valpha-generic
p233
aValpha-smp
p234
asVimplicit-flavour
p235
I01
ss(Vbase
p236
Vamd64
p237
tp238
(dp239
Vfeaturesets
p240
(lp241
Vnone
p242
aVrt
p243
asVkernel-arch
p244
Vx86
p245
ss(Vbuild
p246
g237
tp247
(dp248
Vimage-file
p249
Varch/x86/boot/bzImage
p250
sVsigned-code
p251
I00
sVvdso
p252
I01
ss(Vimage
p253
g237
tp254
(dp255
Vbootloaders
p256
(lp257
Vgrub-pc
p258
aVgrub-efi-amd64
p259
aVextlinux
p260
asVinstall-stem
p261
Vvmlinuz
p262
sVbreaks
p263
(lp264
Vxserver-xorg-input-vmmouse (<< 1:13.0.99)
p265
ass(Vrelations
p266
g237
tp267
(dp268
Vheaders%gcc-12
p269
Vlinux-compiler-gcc-12-x86
p270
ss(Vdescription
p271
g237
NVamd64
p272
tp273
(dp274
Vhardware
p275
V64-bit PCs
p276
sVhardware-long
p277
VPCs with AMD64, Intel 64 or VIA Nano processors
p278
ss(Vdescription
p279
g237
NVcloud-amd64
p280
tp281
(dp282
Vhardware
p283
Vx86-64 cloud
p284
sVhardware-long
p285
Vcloud platforms including Amazon EC2, Microsoft Azure, and Google Compute Engine
p286
ss(Vbase
p287
g237
Vnone
p288
tp289
(dp290
Vflavours
p291
(lp292
Vamd64
p293
aVcloud-amd64
p294
asVdefault-flavour
p295
Vamd64
p296
sVquick-flavour
p297
Vcloud-amd64
p298
ss(Vimage
p299
g237
g288
Vcloud-amd64
p300
tp301
(dp302
Vconfigs
p303
(lp304
Vconfig.cloud
p305
aVamd64/config.cloud-amd64
p306
ass(Vbase
p307
g237
Vrt
p308
tp309
(dp310
Vflavours
p311
(lp312
Vamd64
p313
ass(Vbase
p314
Varm64
p315
tp316
(dp317
Vcross-compile-compat
p318
Varm-linux-gnueabihf-
p319
sVkernel-arch
p320
Varm64
p321
sVfeaturesets
p322
(lp323
Vnone
p324
aVrt
p325
ass(Vbuild
p326
g315
tp327
(dp328
Vimage-file
p329
Varch/arm64/boot/Image
p330
sVsigned-code
p331
I00
sVvdso
p332
I01
ss(Vimage
p333
g315
tp334
(dp335
Vinstall-stem
p336
Vvmlinuz
p337
sVbreaks
p338
(lp339
Vlibmozjs185-1.0
p340
aVlibmozjs-24-0 (<< 24.2.0-5.1~)
p341
ass(Vdescription
p342
g315
NVarm64
p343
tp344
(dp345
Vhardware
p346
V64-bit ARMv8 machines
p347
ss(Vdescription
p348
g315
NVcloud-arm64
p349
tp350
(dp351
Vhardware
p352
Varm64 cloud
p353
sVhardware-long
p354
Vcloud platforms supporting arm64 virtual machines
p355
ss(Vimage
p356
g315
NVarm64
p357
tp358
(dp359
s(Vrelations
p360
g315
tp361
(dp362
Vgcc-12
p363
Vgcc-12 <!stage1 !cross !pkg.linux.nokernel>, gcc-12-aarch64-linux-gnu <!stage1 cross !pkg.linux.nokernel>, gcc-arm-linux-gnueabihf <!stage1 !pkg.linux.nokernel>
p364
sVheaders%gcc-12
p365
Vgcc-12
p366
ss(Vbase
p367
g315
Vnone
p368
tp369
(dp370
Vflavours
p371
(lp372
Varm64
p373
aVcloud-arm64
p374
asVdefault-flavour
p375
Varm64
p376
sVquick-flavour
p377
Vcloud-arm64
p378
ss(Vimage
p379
g315
g368
Vcloud-arm64
p380
tp381
(dp382
Vconfigs
p383
(lp384
Vconfig.cloud
p385
aVarm64/config.cloud-arm64
p386
ass(Vbase
p387
g315
Vrt
p388
tp389
(dp390
Vflavours
p391
(lp392
Varm64
p393
ass(Vbase
p394
Varm64ilp32
p395
tp396
(dp397
Vkernel-arch
p398
Varm64
p399
sVfeaturesets
p400
(lp401
ss(Vbase
p402
Varmel
p403
tp404
(dp405
Vkernel-arch
p406
Varm
p407
sg195
(lp408
g197
ass(Vbuild
p409
g403
tp410
(dp411
Vimage-file
p412
Varch/arm/boot/zImage
p413
sVuncompressed-image-file
p414
Varch/arm/boot/Image
p415
sVsigned-code
p416
I00
ss(Vimage
p417
g403
tp418
(dp419
Vinstall-stem
p420
Vvmlinuz
p421
ss(Vrelations
p422
g403
tp423
(dp424
Vheaders%gcc-12
p425
Vlinux-compiler-gcc-12-arm
p426
ss(Vdescription
p427
g403
NVmarvell
p428
tp429
(dp430
Vhardware
p431
VMarvell Kirkwood/Orion
p432
sVhardware-long
p433
VMarvell Kirkwood and Orion based systems (https://wiki.debian.org/ArmEabiPort#Supported_hardware)
p434
ss(Vdescription
p435
g403
NVrpi
p436
tp437
(dp438
Vhardware
p439
VRaspberry Pi Zero, Zero W and 1
p440
sVhardware-long
p441
VRaspberry Pi Zero, Zero W and 1 based systems
p442
ss(Vimage
p443
g403
NVmarvell
p444
tp445
(dp446
Vrecommends
p447
(lp448
Vu-boot-tools
p449
asVcheck-size
p450
I2729712
sVcheck-size-with-dtb
p451
I01
sVbreaks
p452
(lp453
Vflash-kernel (<< 3.57~)
p454
ass(g228
g403
g197
tp455
(dp456
g231
(lp457
Vmarvell
p458
aVrpi
p459
asg235
I01
ss(Vbase
p460
Varmhf
p461
tp462
(dp463
Vfeaturesets
p464
(lp465
Vnone
p466
aVrt
p467
asVkernel-arch
p468
Varm
p469
ss(Vbuild
p470
g461
tp471
(dp472
Vimage-file
p473
Varch/arm/boot/zImage
p474
sVvdso
p475
I01
sVsigned-code
p476
I00
ss(Vimage
p477
g461
tp478
(dp479
Vinstall-stem
p480
Vvmlinuz
p481
ss(Vrelations
p482
g461
tp483
(dp484
Vheaders%gcc-12
p485
Vlinux-compiler-gcc-12-arm
p486
ss(Vdescription
p487
g461
NVarmmp
p488
tp489
(dp490
Vhardware
p491
VARMv7 multiplatform compatible SoCs
p492
sVhardware-long
p493
VARMv7 multiplatform kernel. See\u000ahttps://wiki.debian.org/DebianKernel/ARMMP for details of supported\u000aplatforms
p494
ss(Vdescription
p495
g461
NVarmmp-lpae
p496
tp497
(dp498
Vhardware
p499
VARMv7 multiplatform compatible SoCs supporting LPAE
p500
sVhardware-long
p501
VARMv7 multiplatform kernel supporting LPAE. See\u000ahttps://wiki.debian.org/DebianKernel/ARMMP for details of supported\u000aplatforms.
p502
ss(Vbase
p503
g461
Vnone
p504
tp505
(dp506
Vflavours
p507
(lp508
Varmmp
p509
aVarmmp-lpae
p510
asVdefault-flavour
p511
Varmmp
p512
ss(Vbase
p513
g461
Vrt
p514
tp515
(dp516
Vflavours
p517
(lp518
Varmmp
p519
ass(Vbase
p520
Vhppa
p521
tp522
(dp523
Vdefault-flavour
p524
Vparisc
p525
sVkernel-arch
p526
Vparisc
p527
sg195
(lp528
g197
ass(Vbuild
p529
g521
tp530
(dp531
Vimage-file
p532
Varch/parisc/boot/bzImage
p533
ss(Vimage
p534
g521
tp535
(dp536
Vsuggests
p537
(lp538
Vpalo
p539
asVinstall-stem
p540
Vvmlinuz
p541
ss(Vdescription
p542
g521
NVparisc
p543
tp544
(dp545
Vhardware
p546
V32-bit PA-RISC
p547
sVhardware-long
p548
VHP PA-RISC 32-bit systems with max 4 GB RAM
p549
ss(Vbase
p550
g521
NVparisc64
p551
tp552
(dp553
Vcflags
p554
V-fno-cse-follow-jumps
p555
sVoverride-host-type
p556
Vhppa64-linux-gnu
p557
ss(Vdescription
p558
g521
NVparisc64
p559
tp560
(dp561
Vhardware
p562
V64-bit PA-RISC
p563
sVhardware-long
p564
VHP PA-RISC 64-bit systems with support for more than 4 GB RAM
p565
ss(Vrelations
p566
g521
tp567
(dp568
Vgcc-12
p569
Vgcc-12 <!stage1 !cross !pkg.linux.nokernel>, gcc-12-hppa-linux-gnu <!stage1 cross !pkg.linux.nokernel>, binutils-hppa64-linux-gnu <!stage1 !pkg.linux.nokernel>, gcc-12-hppa64-linux-gnu <!stage1 !pkg.linux.nokernel>
p570
ss(g228
g521
g197
tp571
(dp572
g231
(lp573
Vparisc
p574
aVparisc64
p575
asg235
I01
ss(Vbase
p576
Vi386
p577
tp578
(dp579
Vfeaturesets
p580
(lp581
Vnone
p582
aVrt
p583
asVkernel-arch
p584
Vx86
p585
ss(Vbuild
p586
g577
tp587
(dp588
Vimage-file
p589
Varch/x86/boot/bzImage
p590
sVsigned-code
p591
I00
sVvdso
p592
I01
ss(Vdescription
p593
g577
tp594
(dp595
Vpart-long-pae
p596
VThis kernel requires PAE (Physical Address Extension).\u000aThis feature is supported by the Intel Pentium Pro/II/III/4/4M/D, Xeon,\u000aCore and Atom; AMD Geode NX, Athlon (K7), Duron, Opteron, Sempron,\u000aTurion or Phenom; Transmeta Efficeon; VIA C7; and some other processors.
p597
ss(Vimage
p598
g577
tp599
(dp600
Vbootloaders
p601
(lp602
Vgrub-pc
p603
aVgrub-efi-ia32
p604
aVextlinux
p605
asVinstall-stem
p606
Vvmlinuz
p607
sVbreaks
p608
(lp609
Vxserver-xorg-input-vmmouse (<< 1:13.0.99)
p610
ass(Vrelations
p611
g577
tp612
(dp613
Vheaders%gcc-12
p614
Vlinux-compiler-gcc-12-x86
p615
ss(Vdescription
p616
g577
NV686
p617
tp618
(dp619
Vhardware
p620
Volder PCs
p621
sVhardware-long
p622
VPCs with one or more processors not supporting PAE
p623
ss(Vdescription
p624
g577
NV686-pae
p625
tp626
(dp627
Vhardware
p628
Vmodern PCs
p629
sVhardware-long
p630
VPCs with one or more processors supporting PAE
p631
sVparts
p632
(lp633
Vpae
p634
ass(Vbase
p635
g577
Vnone
p636
tp637
(dp638
Vflavours
p639
(lp640
V686
p641
aV686-pae
p642
asVdefault-flavour
p643
V686-pae
p644
ss(Vbase
p645
g577
Vrt
p646
tp647
(dp648
Vflavours
p649
(lp650
V686-pae
p651
ass(Vbase
p652
Via64
p653
tp654
(dp655
Vdefault-flavour
p656
Vitanium
p657
sVkernel-arch
p658
Via64
p659
sg195
(lp660
g197
ass(Vbuild
p661
g653
tp662
(dp663
Vimage-file
p664
Vvmlinux.gz
p665
ss(Vimage
p666
g653
tp667
(dp668
Vbootloaders
p669
(lp670
Vgrub-efi-ia64
p671
asVinstall-stem
p672
Vvmlinuz
p673
ss(Vdescription
p674
g653
NVitanium
p675
tp676
(dp677
Vhardware
p678
VItanium (Merced)
p679
sVhardware-long
p680
Vsystems with original Itanium (Merced) processors
p681
ss(Vdescription
p682
g653
NVmckinley
p683
tp684
(dp685
Vhardware
p686
VItanium 2+
p687
sVhardware-long
p688
Vsystems with Itanium 2 or 9300/9500/9700-series processors
p689
ss(g228
g653
g197
tp690
(dp691
g231
(lp692
Vitanium
p693
aVmckinley
p694
asg235
I01
ss(Vbase
p695
Vm68k
p696
tp697
(dp698
Vcflags
p699
V-ffreestanding
p700
sVdefault-flavour
p701
Vm68k
p702
sVkernel-arch
p703
Vm68k
p704
sg195
(lp705
g197
ass(Vbuild
p706
g696
tp707
(dp708
Vimage-file
p709
Vvmlinux
p710
ss(Vimage
p711
g696
tp712
(dp713
Vsuggests
p714
(lp715
Vvmelilo
p716
aVfdutils
p717
asVinstall-stem
p718
Vvmlinux
p719
ss(Vdescription
p720
g696
NVm68k
p721
tp722
(dp723
Vhardware
p724
VMotorola MC68020+ family
p725
ss(g228
g696
g197
tp726
(dp727
g231
(lp728
Vm68k
p729
asg235
I01
ss(Vbase
p730
Vmips
p731
tp732
(dp733
Vkernel-arch
p734
Vmips
p735
sg195
(lp736
g197
ass(Vbuild
p737
g731
tp738
(dp739
Vimage-file
p740
Vvmlinuz
p741
ss(Vimage
p742
g731
tp743
(dp744
Vinstall-stem
p745
Vvmlinuz
p746
ss(Vdescription
p747
g731
NV4kc-malta
p748
tp749
(dp750
Vhardware
p751
VMIPS Malta
p752
sVhardware-long
p753
VMIPS Malta boards
p754
ss(Vimage
p755
g731
NV4kc-malta
p756
tp757
(dp758
Vconfigs
p759
(lp760
Vkernelarch-mips/config.malta
p761
aVkernelarch-mips/config.mips32r2
p762
ass(Vdescription
p763
g731
NVmips32r2eb
p764
tp765
(dp766
Vhardware
p767
VMIPS Generic (mips32r2eb)
p768
sVhardware-long
p769
VMIPS Generic platform (mips32r2eb)
p770
ss(Vimage
p771
g731
NVmips32r2eb
p772
tp773
(dp774
Vconfigs
p775
(lp776
Vkernelarch-mips/config.boston
p777
aVkernelarch-mips/config.mips32r2
p778
ass(Vdescription
p779
g731
NVocteon
p780
tp781
(dp782
Vhardware
p783
VOcteon
p784
sVhardware-long
p785
VCavium Networks Octeon
p786
ss(Vbuild
p787
g731
NVocteon
p788
tp789
(dp790
Vimage-file
p791
Vvmlinux
p792
ss(Vimage
p793
g731
NVocteon
p794
tp795
(dp796
Vinstall-stem
p797
Vvmlinux
p798
sVconfigs
p799
(lp800
Vkernelarch-mips/config.octeon
p801
ass(g228
g731
g197
tp802
(dp803
g231
(lp804
V4kc-malta
p805
aVmips32r2eb
p806
aVocteon
p807
asg235
I01
ss(Vbase
p808
Vmips64
p809
tp810
(dp811
Vkernel-arch
p812
Vmips
p813
sg195
(lp814
g197
ass(Vbuild
p815
g809
tp816
(dp817
Vimage-file
p818
Vvmlinuz
p819
ss(Vimage
p820
g809
tp821
(dp822
Vinstall-stem
p823
Vvmlinuz
p824
ss(Vdescription
p825
g809
NV5kc-malta
p826
tp827
(dp828
Vhardware
p829
VMIPS Malta
p830
sVhardware-long
p831
VMIPS Malta boards
p832
ss(Vimage
p833
g809
NV5kc-malta
p834
tp835
(dp836
Vconfigs
p837
(lp838
Vkernelarch-mips/config.malta
p839
aVkernelarch-mips/config.mips64r2
p840
ass(Vdescription
p841
g809
NVmips64r2eb
p842
tp843
(dp844
Vhardware
p845
VMIPS Generic (mips64r2eb)
p846
sVhardware-long
p847
VMIPS Generic platform (mips64r2eb)
p848
ss(Vimage
p849
g809
NVmips64r2eb
p850
tp851
(dp852
Vconfigs
p853
(lp854
Vkernelarch-mips/config.boston
p855
aVkernelarch-mips/config.mips64r2
p856
ass(Vdescription
p857
g809
NVocteon
p858
tp859
(dp860
Vhardware
p861
VOcteon
p862
sVhardware-long
p863
VCavium Networks Octeon
p864
ss(Vbuild
p865
g809
NVocteon
p866
tp867
(dp868
Vimage-file
p869
Vvmlinux
p870
ss(Vimage
p871
g809
NVocteon
p872
tp873
(dp874
Vinstall-stem
p875
Vvmlinux
p876
sVconfigs
p877
(lp878
Vkernelarch-mips/config.octeon
p879
ass(g228
g809
g197
tp880
(dp881
g231
(lp882
V5kc-malta
p883
aVmips64r2eb
p884
aVocteon
p885
asg235
I01
ss(Vbase
p886
Vmips64el
p887
tp888
(dp889
Vkernel-arch
p890
Vmips
p891
sg195
(lp892
g197
ass(Vbuild
p893
g887
tp894
(dp895
Vimage-file
p896
Vvmlinuz
p897
ss(Vimage
p898
g887
tp899
(dp900
Vinstall-stem
p901
Vvmlinuz
p902
ss(Vdescription
p903
g887
NV5kc-malta
p904
tp905
(dp906
Vhardware
p907
VMIPS Malta
p908
sVhardware-long
p909
VMIPS Malta boards
p910
ss(Vimage
p911
g887
NV5kc-malta
p912
tp913
(dp914
Vconfigs
p915
(lp916
Vkernelarch-mips/config.malta
p917
aVkernelarch-mips/config.mips64r2
p918
ass(Vdescription
p919
g887
NVmips64r2el
p920
tp921
(dp922
Vhardware
p923
VMIPS Generic (mips64r2el)
p924
sVhardware-long
p925
VMIPS Generic platform (mips64r2el)
p926
ss(Vimage
p927
g887
NVmips64r2el
p928
tp929
(dp930
Vconfigs
p931
(lp932
Vkernelarch-mips/config.boston
p933
aVkernelarch-mips/config.mips64r2
p934
ass(Vdescription
p935
g887
NVloongson-3
p936
tp937
(dp938
Vhardware
p939
VLoongson 3A/3B
p940
sVhardware-long
p941
VLoongson 3A or 3B based systems (e.g. from Loongson or Lemote)
p942
ss(Vimage
p943
g887
NVloongson-3
p944
tp945
(dp946
Vrecommends
p947
(lp948
Vpmon-update
p949
asVconfigs
p950
(lp951
Vkernelarch-mips/config.loongson-3
p952
ass(Vdescription
p953
g887
NVocteon
p954
tp955
(dp956
Vhardware
p957
VOcteon
p958
sVhardware-long
p959
VCavium Networks Octeon
p960
ss(Vbuild
p961
g887
NVocteon
p962
tp963
(dp964
Vimage-file
p965
Vvmlinux
p966
ss(Vimage
p967
g887
NVocteon
p968
tp969
(dp970
Vinstall-stem
p971
Vvmlinux
p972
sVconfigs
p973
(lp974
Vkernelarch-mips/config.octeon
p975
ass(g228
g887
g197
tp976
(dp977
g231
(lp978
V5kc-malta
p979
aVmips64r2el
p980
aVloongson-3
p981
aVocteon
p982
asg235
I01
ss(Vbase
p983
Vmips64r6
p984
tp985
(dp986
Vkernel-arch
p987
Vmips
p988
sg195
(lp989
g197
ass(Vbuild
p990
g984
tp991
(dp992
Vimage-file
p993
Vvmlinuz
p994
ss(Vimage
p995
g984
tp996
(dp997
Vinstall-stem
p998
Vvmlinuz
p999
ss(Vdescription
p1000
g984
NVmips64r6eb
p1001
tp1002
(dp1003
Vhardware
p1004
VMIPS Generic (mips64r6eb)
p1005
sVhardware-long
p1006
VMIPS Generic platform (mips64r6eb)
p1007
ss(Vimage
p1008
g984
NVmips64r6eb
p1009
tp1010
(dp1011
Vconfigs
p1012
(lp1013
Vkernelarch-mips/config.boston
p1014
aVkernelarch-mips/config.mips64r6
p1015
ass(g228
g984
g197
tp1016
(dp1017
g231
(lp1018
Vmips64r6eb
p1019
asg235
I01
ss(Vbase
p1020
Vmips64r6el
p1021
tp1022
(dp1023
Vkernel-arch
p1024
Vmips
p1025
sg195
(lp1026
g197
ass(Vbuild
p1027
g1021
tp1028
(dp1029
Vimage-file
p1030
Vvmlinuz
p1031
ss(Vimage
p1032
g1021
tp1033
(dp1034
Vinstall-stem
p1035
Vvmlinuz
p1036
ss(Vdescription
p1037
g1021
NVmips64r6el
p1038
tp1039
(dp1040
Vhardware
p1041
VMIPS Generic (mips64r6el)
p1042
sVhardware-long
p1043
VMIPS Generic platform (mips64r6el)
p1044
ss(Vimage
p1045
g1021
NVmips64r6el
p1046
tp1047
(dp1048
Vconfigs
p1049
(lp1050
Vkernelarch-mips/config.boston
p1051
aVkernelarch-mips/config.mips64r6
p1052
ass(g228
g1021
g197
tp1053
(dp1054
g231
(lp1055
Vmips64r6el
p1056
asg235
I01
ss(Vbase
p1057
Vmipsel
p1058
tp1059
(dp1060
Vkernel-arch
p1061
Vmips
p1062
sg195
(lp1063
g197
ass(Vbuild
p1064
g1058
tp1065
(dp1066
Vimage-file
p1067
Vvmlinuz
p1068
ss(Vimage
p1069
g1058
tp1070
(dp1071
Vinstall-stem
p1072
Vvmlinuz
p1073
ss(Vdescription
p1074
g1058
NV4kc-malta
p1075
tp1076
(dp1077
Vhardware
p1078
VMIPS Malta
p1079
sVhardware-long
p1080
VMIPS Malta boards
p1081
ss(Vimage
p1082
g1058
NV4kc-malta
p1083
tp1084
(dp1085
Vconfigs
p1086
(lp1087
Vkernelarch-mips/config.malta
p1088
aVkernelarch-mips/config.mips32r2
p1089
ass(Vdescription
p1090
g1058
NVmips32r2el
p1091
tp1092
(dp1093
Vhardware
p1094
VMIPS Generic (mips32r2el)
p1095
sVhardware-long
p1096
VMIPS Generic platform (mips32r2el)
p1097
ss(Vimage
p1098
g1058
NVmips32r2el
p1099
tp1100
(dp1101
Vconfigs
p1102
(lp1103
Vkernelarch-mips/config.boston
p1104
aVkernelarch-mips/config.mips32r2
p1105
ass(Vdescription
p1106
g1058
NVloongson-3
p1107
tp1108
(dp1109
Vhardware
p1110
VLoongson 3A/3B
p1111
sVhardware-long
p1112
VLoongson 3A or 3B based systems (e.g. from Loongson or Lemote)
p1113
ss(Vimage
p1114
g1058
NVloongson-3
p1115
tp1116
(dp1117
Vrecommends
p1118
(lp1119
Vpmon-update
p1120
asVconfigs
p1121
(lp1122
Vkernelarch-mips/config.loongson-3
p1123
ass(Vdescription
p1124
g1058
NVocteon
p1125
tp1126
(dp1127
Vhardware
p1128
VOcteon
p1129
sVhardware-long
p1130
VCavium Networks Octeon
p1131
ss(Vbuild
p1132
g1058
NVocteon
p1133
tp1134
(dp1135
Vimage-file
p1136
Vvmlinux
p1137
ss(Vimage
p1138
g1058
NVocteon
p1139
tp1140
(dp1141
Vinstall-stem
p1142
Vvmlinux
p1143
sVconfigs
p1144
(lp1145
Vkernelarch-mips/config.octeon
p1146
ass(g228
g1058
g197
tp1147
(dp1148
g231
(lp1149
V4kc-malta
p1150
aVmips32r2el
p1151
aVloongson-3
p1152
aVocteon
p1153
asg235
I01
ss(Vbase
p1154
Vmipsn32
p1155
tp1156
(dp1157
Vkernel-arch
p1158
Vmips
p1159
sVfeaturesets
p1160
(lp1161
ss(Vbase
p1162
Vmipsn32el
p1163
tp1164
(dp1165
Vkernel-arch
p1166
Vmips
p1167
sVfeaturesets
p1168
(lp1169
ss(Vbase
p1170
Vmipsn32r6
p1171
tp1172
(dp1173
Vkernel-arch
p1174
Vmips
p1175
sVfeaturesets
p1176
(lp1177
ss(Vbase
p1178
Vmipsn32r6el
p1179
tp1180
(dp1181
Vkernel-arch
p1182
Vmips
p1183
sVfeaturesets
p1184
(lp1185
ss(Vbase
p1186
Vmipsr6
p1187
tp1188
(dp1189
Vkernel-arch
p1190
Vmips
p1191
sg195
(lp1192
g197
ass(Vbuild
p1193
g1187
tp1194
(dp1195
Vimage-file
p1196
Vvmlinuz
p1197
ss(Vimage
p1198
g1187
tp1199
(dp1200
Vinstall-stem
p1201
Vvmlinuz
p1202
ss(Vdescription
p1203
g1187
NVmips32r6eb
p1204
tp1205
(dp1206
Vhardware
p1207
VMIPS Generic (mips32r6eb)
p1208
sVhardware-long
p1209
VMIPS Generic platform (mips32r6eb)
p1210
ss(Vimage
p1211
g1187
NVmips32r6eb
p1212
tp1213
(dp1214
Vconfigs
p1215
(lp1216
Vkernelarch-mips/config.boston
p1217
aVkernelarch-mips/config.mips32r6
p1218
ass(g228
g1187
g197
tp1219
(dp1220
g231
(lp1221
Vmips32r6eb
p1222
asg235
I01
ss(Vbase
p1223
Vmipsr6el
p1224
tp1225
(dp1226
Vkernel-arch
p1227
Vmips
p1228
sg195
(lp1229
g197
ass(Vbuild
p1230
g1224
tp1231
(dp1232
Vimage-file
p1233
Vvmlinuz
p1234
ss(Vimage
p1235
g1224
tp1236
(dp1237
Vinstall-stem
p1238
Vvmlinuz
p1239
ss(Vdescription
p1240
g1224
NVmips32r6el
p1241
tp1242
(dp1243
Vhardware
p1244
VMIPS Generic (mips32r6el)
p1245
sVhardware-long
p1246
VMIPS Generic platform (mips32r6el)
p1247
ss(Vimage
p1248
g1224
NVmips32r6el
p1249
tp1250
(dp1251
Vconfigs
p1252
(lp1253
Vkernelarch-mips/config.boston
p1254
aVkernelarch-mips/config.mips32r6
p1255
ass(g228
g1224
g197
tp1256
(dp1257
g231
(lp1258
Vmips32r6el
p1259
asg235
I01
ss(Vbase
p1260
Vpowerpc
p1261
tp1262
(dp1263
Vkernel-arch
p1264
Vpowerpc
p1265
sg195
(lp1266
g197
ass(Vbuild
p1267
g1261
tp1268
(dp1269
Vimage-file
p1270
Vvmlinux
p1271
ss(Vimage
p1272
g1261
tp1273
(dp1274
Vconfigs
p1275
(lp1276
sVbootloaders
p1277
(lp1278
Vgrub-ieee1275
p1279
asVsuggests
p1280
(lp1281
Vmkvmlinuz
p1282
asVinstall-stem
p1283
Vvmlinux
p1284
ss(Vdescription
p1285
g1261
NVpowerpc
p1286
tp1287
(dp1288
Vhardware
p1289
Vuniprocessor 32-bit PowerPC
p1290
ss(Vdescription
p1291
g1261
NVpowerpc-smp
p1292
tp1293
(dp1294
Vhardware
p1295
Vmultiprocessor 32-bit PowerPC
p1296
ss(Vimage
p1297
g1261
NVpowerpc-smp
p1298
tp1299
(dp1300
Vconfigs
p1301
(lp1302
Vpowerpc/config.powerpc
p1303
aVpowerpc/config.powerpc-smp
p1304
ass(Vdescription
p1305
g1261
NVpowerpc64
p1306
tp1307
(dp1308
Vhardware
p1309
V64-bit PowerPC
p1310
ss(Vimage
p1311
g1261
NVpowerpc64
p1312
tp1313
(dp1314
Vconfigs
p1315
(lp1316
Vkernelarch-powerpc/config-arch-64
p1317
aVkernelarch-powerpc/config-arch-64-be
p1318
ass(g228
g1261
g197
tp1319
(dp1320
g231
(lp1321
Vpowerpc
p1322
aVpowerpc-smp
p1323
aVpowerpc64
p1324
asg235
I01
ss(Vbase
p1325
Vppc64
p1326
tp1327
(dp1328
Vdefault-flavour
p1329
Vpowerpc64
p1330
sVkernel-arch
p1331
Vpowerpc
p1332
sg195
(lp1333
g197
ass(Vbuild
p1334
g1326
tp1335
(dp1336
Vimage-file
p1337
Vvmlinux
p1338
ss(Vimage
p1339
g1326
tp1340
(dp1341
Vconfigs
p1342
(lp1343
sVbootloaders
p1344
(lp1345
Vgrub-ieee1275
p1346
asVsuggests
p1347
(lp1348
Vmkvmlinuz
p1349
asVinstall-stem
p1350
Vvmlinux
p1351
ss(Vdescription
p1352
g1326
NVpowerpc64
p1353
tp1354
(dp1355
Vhardware
p1356
V64-bit PowerPC
p1357
ss(Vimage
p1358
g1326
NVpowerpc64
p1359
tp1360
(dp1361
Vconfigs
p1362
(lp1363
Vkernelarch-powerpc/config-arch-64
p1364
aVkernelarch-powerpc/config-arch-64-be
p1365
ass(g228
g1326
g197
tp1366
(dp1367
g231
(lp1368
Vpowerpc64
p1369
asg235
I01
ss(Vbase
p1370
Vppc64el
p1371
tp1372
(dp1373
Vdefault-flavour
p1374
Vpowerpc64le
p1375
sVkernel-arch
p1376
Vpowerpc
p1377
sg195
(lp1378
g197
ass(Vbuild
p1379
g1371
tp1380
(dp1381
Vimage-file
p1382
Vvmlinux
p1383
ss(Vimage
p1384
g1371
tp1385
(dp1386
Vconfigs
p1387
(lp1388
sVbootloaders
p1389
(lp1390
Vgrub-ieee1275
p1391
asVsuggests
p1392
(lp1393
Vmkvmlinuz
p1394
asVinstall-stem
p1395
Vvmlinux
p1396
ss(Vdescription
p1397
g1371
NVpowerpc64le
p1398
tp1399
(dp1400
Vhardware
p1401
VLittle-endian 64-bit PowerPC
p1402
ss(Vimage
p1403
g1371
NVpowerpc64le
p1404
tp1405
(dp1406
Vconfigs
p1407
(lp1408
Vkernelarch-powerpc/config-arch-64
p1409
aVkernelarch-powerpc/config-arch-64-le
p1410
ass(g228
g1371
g197
tp1411
(dp1412
g231
(lp1413
Vpowerpc64le
p1414
asg235
I01
ss(Vbase
p1415
Vriscv64
p1416
tp1417
(dp1418
Vkernel-arch
p1419
Vriscv
p1420
sVfeaturesets
p1421
(lp1422
Vnone
p1423
ass(Vbuild
p1424
g1416
tp1425
(dp1426
Vimage-file
p1427
Varch/riscv/boot/Image
p1428
sVvdso
p1429
I01
ss(Vimage
p1430
g1416
tp1431
(dp1432
Vinstall-stem
p1433
Vvmlinux
p1434
ss(Vdescription
p1435
g1416
NVriscv64
p1436
tp1437
(dp1438
Vhardware
p1439
V64-bit RISC-V platforms
p1440
sVhardware-long
p1441
V64-bit RISC-V platforms
p1442
ss(Vbase
p1443
g1416
Vnone
p1444
tp1445
(dp1446
Vflavours
p1447
(lp1448
Vriscv64
p1449
asVdefault-flavour
p1450
Vriscv64
p1451
ss(Vbase
p1452
Vs390
p1453
tp1454
(dp1455
Vkernel-arch
p1456
Vs390
p1457
sVfeaturesets
p1458
(lp1459
ss(Vbase
p1460
Vs390x
p1461
tp1462
(dp1463
Vdefault-flavour
p1464
Vs390x
p1465
sVkernel-arch
p1466
Vs390
p1467
sg195
(lp1468
g197
ass(Vbuild
p1469
g1461
tp1470
(dp1471
Vimage-file
p1472
Varch/s390/boot/bzImage
p1473
sVvdso
p1474
I01
ss(Vimage
p1475
g1461
tp1476
(dp1477
Vbootloaders
p1478
(lp1479
Vs390-tools
p1480
asVinstall-stem
p1481
Vvmlinuz
p1482
ss(Vrelations
p1483
g1461
tp1484
(dp1485
Vheaders%gcc-12
p1486
Vlinux-compiler-gcc-12-s390
p1487
ss(Vdescription
p1488
g1461
NVs390x
p1489
tp1490
(dp1491
Vhardware
p1492
VIBM zSeries
p1493
ss(g228
g1461
g197
tp1494
(dp1495
g231
(lp1496
Vs390x
p1497
asg235
I01
ss(Vbase
p1498
Vsh3
p1499
tp1500
(dp1501
Vkernel-arch
p1502
Vsh
p1503
sVfeaturesets
p1504
(lp1505
ss(Vbase
p1506
Vsh4
p1507
tp1508
(dp1509
Vkernel-arch
p1510
Vsh
p1511
sg195
(lp1512
g197
ass(Vbuild
p1513
g1507
tp1514
(dp1515
Vimage-file
p1516
Varch/sh/boot/zImage
p1517
ss(Vimage
p1518
g1507
tp1519
(dp1520
Vinstall-stem
p1521
Vvmlinuz
p1522
ss(Vdescription
p1523
g1507
NVsh7751r
p1524
tp1525
(dp1526
Vhardware
p1527
Vsh7751r
p1528
sVhardware-long
p1529
VRenesas SH7751R R2D plus board
p1530
ss(Vdescription
p1531
g1507
NVsh7785lcr
p1532
tp1533
(dp1534
Vhardware
p1535
Vsh7785lcr
p1536
sVhardware-long
p1537
VRenesas SH7785 reference board
p1538
ss(Vimage
p1539
g1507
NVsh7785lcr
p1540
tp1541
(dp1542
Vrecommends
p1543
(lp1544
Vu-boot-tools
p1545
asVcheck-size
p1546
I4194304
ss(g228
g1507
g197
tp1547
(dp1548
g231
(lp1549
Vsh7751r
p1550
aVsh7785lcr
p1551
asg235
I01
ss(Vbase
p1552
Vsparc
p1553
tp1554
(dp1555
Vkernel-arch
p1556
Vsparc
p1557
sVfeaturesets
p1558
(lp1559
ss(Vbase
p1560
Vsparc64
p1561
tp1562
(dp1563
Vdefault-flavour
p1564
Vsparc64-smp
p1565
sVkernel-arch
p1566
Vsparc
p1567
sg195
(lp1568
g197
ass(Vbuild
p1569
g1561
tp1570
(dp1571
Vimage-file
p1572
Vvmlinux
p1573
ss(Vimage
p1574
g1561
tp1575
(dp1576
Vconfigs
p1577
(lp1578
sVbootloaders
p1579
(lp1580
Vgrub-ieee1275
p1581
asVsuggests
p1582
(lp1583
Vfdutils
p1584
asVinstall-stem
p1585
Vvmlinux
p1586
ss(Vdescription
p1587
g1561
NVsparc64
p1588
tp1589
(dp1590
Vhardware
p1591
Vuniprocessor 64-bit UltraSPARC
p1592
ss(Vimage
p1593
g1561
NVsparc64
p1594
tp1595
(dp1596
Vconfigs
p1597
(lp1598
Vkernelarch-sparc/config-up
p1599
ass(Vdescription
p1600
g1561
NVsparc64-smp
p1601
tp1602
(dp1603
Vhardware
p1604
Vmultiprocessor 64-bit UltraSPARC
p1605
ss(Vimage
p1606
g1561
NVsparc64-smp
p1607
tp1608
(dp1609
Vconfigs
p1610
(lp1611
Vkernelarch-sparc/config-smp
p1612
ass(g228
g1561
g197
tp1613
(dp1614
g231
(lp1615
Vsparc64
p1616
aVsparc64-smp
p1617
asg235
I01
ss(Vbase
p1618
Vx32
p1619
tp1620
(dp1621
Vkernel-arch
p1622
Vx86
p1623
sVfeaturesets
p1624
(lp1625
ss(Vabi
p1626
NVrt
p1627
tp1628
(dp1629
Vignore-changes
p1630
(lp1631
V*
p1632
ass(Vdescription
p1633
Ng1627
tp1634
(dp1635
Vpart-long-rt
p1636
VThis kernel includes the PREEMPT_RT realtime patch set.
p1637
sVpart-short-rt
p1638
VPREEMPT_RT
p1639
sVparts
p1640
(lp1641
Vrt
p1642
ass(Vversion
p1643
tp1644
(dp1645
Vsource
p1646
V6.0.6-2kali1
p1647
sVupstream
p1648
V6.0
p1649
sVabiname_base
p1650
V6.0.0
p1651
sVabiname
p1652
V6.0.0-kali2
p1653
ss.