cdebian_linux.config
ConfigCore
p0
(tRp1
(Vabi
p2
tp3
(dp4
Vabiname
p5
Vkali3
p6
sVignore-changes
p7
(lp8
V__cpuhp_*
p9
aV__udp_gso_segment
p10
aVbpf_analyzer
p11
aVbpf_offload_dev_create
p12
aVbpf_verifier_log_write
p13
aVcxl_*
p14
aVdax_flush
p15
aVieee80211_nullfunc_get
p16
aVinet_add_protocol
p17
aVinet_del_protocol
p18
aViommu_device_*
p19
aVmm_iommu_*
p20
aVmv_mbus_*
p21
aVperf_*
p22
aVregister_cxl_calls
p23
aVregister_key_type
p24
aVunregister_cxl_calls
p25
aV*_hw_breakpoint
p26
aVmodule:drivers/crypto/ccp/*
p27
aVmodule:drivers/hv/*
p28
aVmodule:drivers/gpu/drm/sun4i/*
p29
aVmodule:drivers/iio/**
p30
aVmodule:drivers/misc/cxl/*
p31
aVmodule:drivers/misc/lis3lv02d/*
p32
aVmodule:drivers/mtd/nand/*
p33
aVmodule:drivers/net/ethernet/**
p34
aVmodule:drivers/net/wireless/**
p35
aVmodule:drivers/nvdimm/*
p36
aVmodule:drivers/nvme/**
p37
aVmodule:drivers/power/supply/bq27xxx_battery
p38
aVmodule:drivers/scsi/cxgbi/*
p39
aVmodule:drivers/scsi/libiscs*
p40
aVmodule:drivers/scsi/qla2xxx/qla2xxx
p41
aVmodule:drivers/scsi/ufs/*
p42
aVmodule:drivers/target/**
p43
aVmodule:drivers/usb/chipidea/**
p44
aVmodule:drivers/usb/gadget/**
p45
aVmodule:drivers/usb/host/**
p46
aVmodule:drivers/usb/musb/**
p47
aVmodule:fs/nfs/**
p48
aVmodule:net/ceph/libceph
p49
aVmodule:net/l2tp/**
p50
aVmodule:net/openvswitch/**
p51
aVmodule:net/rxrpc/rxrpc
p52
aVmodule:net/sctp/**
p53
aVmodule:sound/core/seq/**
p54
aVmodule:sound/firewire/snd-firewire-lib
p55
aVmodule:sound/pci/hda/*
p56
aVbtree_*
p57
aVvisitor*
p58
aVcan_rx_register
p59
aVip6_xmit
p60
aVmodule:net/dccp/dccp
p61
aVmodule:net/rds/rds
p62
aVdevfreq_*
p63
aVdevm_devfreq_*
p64
aVupdate_devfreq
p65
aVmodule:drivers/infiniband/**
p66
aVacpi_ec_add_query_handler
p67
aVacpi_ec_remove_query_handler
p68
aVfirst_ec
p69
aVdebugfs_create_automount
p70
aVmodule:drivers/iio/imu/inv_mpu6050/*
p71
aVdrm_crtc_accurate_vblank_count
p72
aVacpi_nfit_desc_init
p73
aVacpi_nfit_init
p74
aVloop_register_transfer
p75
aVxen_xlate_*
p76
aVnf_nat_masquerade_ipv4_register_notifier
p77
aVnf_nat_masquerade_ipv6_register_notifier
p78
aVdfltcc_*
p79
aVmodule:drivers/scsi/hisi_sas/*
p80
aV__gfn_*
p81
aV__kvmhv_*
p82
aV__kvm_*
p83
aV__xive_vm_h_*
p84
aVgfn_*
p85
aVh_ipi_redirect
p86
aVhalt_poll_ns*
p87
aVkvm_*
p88
aVkvmhv_*
p89
aVkvmppc_*
p90
aVmark_page_dirty
p91
aVvcpu_*
p92
aVmodule:arch/powerpc/kvm/*
p93
aVmodule:arch/s390/kvm/*
p94
aVmodule:arch/x86/kvm/*
p95
aVuv_info
p96
aVxhci_init_driver
p97
aVxfrm_bpf_md_dst
p98
ass(Vbase
p99
tp100
(dp101
Varches
p102
(lp103
Valpha
p104
aVamd64
p105
aVarm64
p106
aVarm64ilp32
p107
aVarmel
p108
aVarmhf
p109
aVhppa
p110
aVi386
p111
aVia64
p112
aVm68k
p113
aVmips
p114
aVmips64
p115
aVmips64el
p116
aVmips64r6
p117
aVmips64r6el
p118
aVmipsel
p119
aVmipsn32
p120
aVmipsn32el
p121
aVmipsn32r6
p122
aVmipsn32r6el
p123
aVmipsr6
p124
aVmipsr6el
p125
aVpowerpc
p126
aVppc64
p127
aVppc64el
p128
aVriscv64
p129
aVs390
p130
aVs390x
p131
aVsh3
p132
aVsh4
p133
aVsparc
p134
aVsparc64
p135
aVx32
p136
asVcompiler
p137
Vgcc-13
p138
sVfeaturesets
p139
(lp140
Vnone
p141
aVrt
p142
ass(Vbuild
p143
tp144
(dp145
Vsigned-code
p146
I00
sVtrusted-certs
p147
Vdebian/certs/debian-uefi-certs.pem
p148
ss(Vbase
p149
NVrt
p150
tp151
(dp152
Venabled
p153
I01
ss(Vdescription
p154
tp155
(dp156
Vpart-long-up
p157
VThis kernel is not suitable for SMP (multi-processor, multi-core or hyper-threaded) systems.
p158
ss(Vimage
p159
tp160
(dp161
Vinitramfs-generators
p162
(lp163
Vinitramfs-tools
p164
aVinitramfs-fallback
p165
asVbreaks
p166
(lp167
Vfwupdate (<< 12-7)
p168
aVwireless-regdb (<< 2019.06.03-1~)
p169
asVrecommends
p170
(lp171
Vapparmor
p172
ass(Vrelations
p173
tp174
(dp175
Vgcc-13
p176
Vgcc-13 <!stage1 !cross !pkg.linux.nokernel>, gcc-13-@gnu-type-package@ <!stage1 cross !pkg.linux.nokernel>
p177
sVinitramfs-fallback
p178
Vlinux-initramfs-tool
p179
sVinitramfs-tools
p180
Vinitramfs-tools (>= 0.120+deb8u2)
p181
ss(Vbase
p182
Valpha
p183
tp184
(dp185
Vdefault-flavour
p186
Valpha-smp
p187
sVkernel-arch
p188
Valpha
p189
sVfeaturesets
p190
(lp191
Vnone
p192
ass(Vbuild
p193
g183
tp194
(dp195
Vimage-file
p196
Varch/alpha/boot/vmlinux.gz
p197
ss(Vimage
p198
g183
tp199
(dp200
Vsuggests
p201
(lp202
Vaboot
p203
aVfdutils
p204
asVinstall-stem
p205
Vvmlinuz
p206
ss(Vdescription
p207
g183
NValpha-generic
p208
tp209
(dp210
Vhardware
p211
VAlpha
p212
sVhardware-long
p213
VDEC Alpha systems with extended kernel start address (Wildfire, Titan, Marvel)
p214
ss(Vdescription
p215
g183
NValpha-smp
p216
tp217
(dp218
Vhardware
p219
VAlpha SMP
p220
sVhardware-long
p221
VDEC Alpha SMP systems with extended kernel start address (Wildfire, Titan, Marvel)
p222
ss(Vbase
p223
g183
g192
tp224
(dp225
Vflavours
p226
(lp227
Valpha-generic
p228
aValpha-smp
p229
asVimplicit-flavour
p230
I01
ss(Vbase
p231
Vamd64
p232
tp233
(dp234
Vfeaturesets
p235
(lp236
Vnone
p237
aVrt
p238
asVkernel-arch
p239
Vx86
p240
ss(Vbuild
p241
g232
tp242
(dp243
Vimage-file
p244
Varch/x86/boot/bzImage
p245
sVsigned-code
p246
I00
sVvdso
p247
I01
ss(Vimage
p248
g232
tp249
(dp250
Vbootloaders
p251
(lp252
Vgrub-pc
p253
aVgrub-efi-amd64
p254
aVextlinux
p255
asVinstall-stem
p256
Vvmlinuz
p257
ss(Vrelations
p258
g232
tp259
(dp260
Vheaders%gcc-13
p261
Vlinux-compiler-gcc-13-x86
p262
ss(Vdescription
p263
g232
NVamd64
p264
tp265
(dp266
Vhardware
p267
V64-bit PCs
p268
sVhardware-long
p269
VPCs with AMD64, Intel 64 or VIA Nano processors
p270
ss(Vdescription
p271
g232
NVcloud-amd64
p272
tp273
(dp274
Vhardware
p275
Vx86-64 cloud
p276
sVhardware-long
p277
Vcloud platforms including Amazon EC2, Microsoft Azure, and Google Compute Engine
p278
ss(Vbase
p279
g232
Vnone
p280
tp281
(dp282
Vflavours
p283
(lp284
Vamd64
p285
aVcloud-amd64
p286
asVdefault-flavour
p287
Vamd64
p288
sVquick-flavour
p289
Vcloud-amd64
p290
ss(Vimage
p291
g232
g280
Vcloud-amd64
p292
tp293
(dp294
Vconfigs
p295
(lp296
Vconfig.cloud
p297
aVamd64/config.cloud-amd64
p298
ass(Vbase
p299
g232
Vrt
p300
tp301
(dp302
Vflavours
p303
(lp304
Vamd64
p305
ass(Vbase
p306
Varm64
p307
tp308
(dp309
Vcompat-deb-arch
p310
Varmhf
p311
sVcompat-gnu-type
p312
Varm-linux-gnueabihf
p313
sVkernel-arch
p314
Varm64
p315
sVfeaturesets
p316
(lp317
Vnone
p318
aVrt
p319
ass(Vbuild
p320
g307
tp321
(dp322
Vimage-file
p323
Varch/arm64/boot/Image
p324
sVsigned-code
p325
I00
sVvdso
p326
I01
ss(Vimage
p327
g307
tp328
(dp329
Vinstall-stem
p330
Vvmlinuz
p331
ss(Vdescription
p332
g307
NVarm64
p333
tp334
(dp335
Vhardware
p336
V64-bit ARMv8 machines
p337
ss(Vdescription
p338
g307
NVcloud-arm64
p339
tp340
(dp341
Vhardware
p342
Varm64 cloud
p343
sVhardware-long
p344
Vcloud platforms supporting arm64 virtual machines
p345
ss(Vimage
p346
g307
NVarm64
p347
tp348
(dp349
s(Vrelations
p350
g307
tp351
(dp352
Vgcc-13
p353
Vgcc-13 <!stage1 !cross !pkg.linux.nokernel>, gcc-13-aarch64-linux-gnu <!stage1 cross !pkg.linux.nokernel>, gcc-arm-linux-gnueabihf <!stage1 !pkg.linux.nokernel>
p354
sVheaders%gcc-13
p355
Vgcc-13
p356
ss(Vbase
p357
g307
Vnone
p358
tp359
(dp360
Vflavours
p361
(lp362
Varm64
p363
aVcloud-arm64
p364
asVdefault-flavour
p365
Varm64
p366
sVquick-flavour
p367
Vcloud-arm64
p368
ss(Vimage
p369
g307
g358
Vcloud-arm64
p370
tp371
(dp372
Vconfigs
p373
(lp374
Vconfig.cloud
p375
aVarm64/config.cloud-arm64
p376
ass(Vbase
p377
g307
Vrt
p378
tp379
(dp380
Vflavours
p381
(lp382
Varm64
p383
ass(Vbase
p384
Varm64ilp32
p385
tp386
(dp387
Vkernel-arch
p388
Varm64
p389
sVfeaturesets
p390
(lp391
ss(Vbase
p392
Varmel
p393
tp394
(dp395
Vkernel-arch
p396
Varm
p397
sg190
(lp398
g192
ass(Vbuild
p399
g393
tp400
(dp401
Vimage-file
p402
Varch/arm/boot/zImage
p403
sVuncompressed-image-file
p404
Varch/arm/boot/Image
p405
sVsigned-code
p406
I00
ss(Vimage
p407
g393
tp408
(dp409
Vinstall-stem
p410
Vvmlinuz
p411
ss(Vrelations
p412
g393
tp413
(dp414
Vheaders%gcc-13
p415
Vlinux-compiler-gcc-13-arm
p416
ss(Vdescription
p417
g393
NVmarvell
p418
tp419
(dp420
Vhardware
p421
VMarvell Kirkwood/Orion
p422
sVhardware-long
p423
VMarvell Kirkwood and Orion based systems (https://wiki.debian.org/ArmEabiPort#Supported_hardware)
p424
ss(Vdescription
p425
g393
NVrpi
p426
tp427
(dp428
Vhardware
p429
VRaspberry Pi Zero, Zero W and 1
p430
sVhardware-long
p431
VRaspberry Pi Zero, Zero W and 1 based systems
p432
ss(Vimage
p433
g393
NVmarvell
p434
tp435
(dp436
Vrecommends
p437
(lp438
Vu-boot-tools
p439
asVcheck-size
p440
I2729712
sVcheck-size-with-dtb
p441
I01
ss(g223
g393
g192
tp442
(dp443
g226
(lp444
Vmarvell
p445
aVrpi
p446
asg230
I01
ss(Vbase
p447
Varmhf
p448
tp449
(dp450
Vfeaturesets
p451
(lp452
Vnone
p453
aVrt
p454
asVkernel-arch
p455
Varm
p456
ss(Vbuild
p457
g448
tp458
(dp459
Vimage-file
p460
Varch/arm/boot/zImage
p461
sVvdso
p462
I01
sVsigned-code
p463
I00
ss(Vimage
p464
g448
tp465
(dp466
Vinstall-stem
p467
Vvmlinuz
p468
ss(Vrelations
p469
g448
tp470
(dp471
Vheaders%gcc-13
p472
Vlinux-compiler-gcc-13-arm
p473
ss(Vdescription
p474
g448
NVarmmp
p475
tp476
(dp477
Vhardware
p478
VARMv7 multiplatform compatible SoCs
p479
sVhardware-long
p480
VARMv7 multiplatform kernel. See https://wiki.debian.org/DebianKernel/ARMMP for details of supported platforms
p481
ss(Vdescription
p482
g448
NVarmmp-lpae
p483
tp484
(dp485
Vhardware
p486
VARMv7 multiplatform compatible SoCs supporting LPAE
p487
sVhardware-long
p488
VARMv7 multiplatform kernel supporting LPAE. See https://wiki.debian.org/DebianKernel/ARMMP for details of supported platforms.
p489
ss(Vbase
p490
g448
Vnone
p491
tp492
(dp493
Vflavours
p494
(lp495
Varmmp
p496
aVarmmp-lpae
p497
asVdefault-flavour
p498
Varmmp
p499
ss(Vbase
p500
g448
Vrt
p501
tp502
(dp503
Vflavours
p504
(lp505
Varmmp
p506
ass(Vbase
p507
Vhppa
p508
tp509
(dp510
Vdefault-flavour
p511
Vparisc
p512
sVkernel-arch
p513
Vparisc
p514
sg190
(lp515
g192
ass(Vbuild
p516
g508
tp517
(dp518
Vimage-file
p519
Varch/parisc/boot/bzImage
p520
ss(Vimage
p521
g508
tp522
(dp523
Vsuggests
p524
(lp525
Vpalo
p526
asVinstall-stem
p527
Vvmlinuz
p528
ss(Vrelations
p529
g508
tp530
(dp531
Vgcc-13
p532
Vgcc-13 <!stage1 !cross !pkg.linux.nokernel>, gcc-13-hppa-linux-gnu <!stage1 cross !pkg.linux.nokernel>, gcc-hppa-linux-gnu <!stage1 cross !pkg.linux.nokernel>, binutils-hppa64-linux-gnu:native <!stage1 !pkg.linux.nokernel>, gcc-13-hppa64-linux-gnu:native <!stage1 !pkg.linux.nokernel>
p533
ss(Vdescription
p534
g508
NVparisc
p535
tp536
(dp537
Vhardware
p538
V32-bit PA-RISC
p539
sVhardware-long
p540
VHP PA-RISC 32-bit systems with max 4 GB RAM
p541
ss(Vrelations
p542
g508
NVparisc
p543
tp544
(dp545
Vheaders%gcc-13
p546
Vgcc-13
p547
ss(Vbase
p548
g508
NVparisc64
p549
tp550
(dp551
Vcflags
p552
V-fno-cse-follow-jumps
p553
sVkernel-deb-arch
p554
Vundefined
p555
sVkernel-gnu-type
p556
Vhppa64-linux-gnu
p557
sVcompat-deb-arch
p558
Vhppa
p559
sVcompat-gnu-type
p560
Vhppa-linux-gnu
p561
ss(Vdescription
p562
g508
NVparisc64
p563
tp564
(dp565
Vhardware
p566
V64-bit PA-RISC
p567
sVhardware-long
p568
VHP PA-RISC 64-bit systems with support for more than 4 GB RAM
p569
ss(Vrelations
p570
g508
NVparisc64
p571
tp572
(dp573
Vheaders%gcc-13
p574
Vgcc-13-hppa64-linux-gnu
p575
ss(g223
g508
g192
tp576
(dp577
g226
(lp578
Vparisc
p579
aVparisc64
p580
asg230
I01
ss(Vbase
p581
Vi386
p582
tp583
(dp584
Vfeaturesets
p585
(lp586
Vnone
p587
aVrt
p588
asVkernel-arch
p589
Vx86
p590
ss(Vbuild
p591
g582
tp592
(dp593
Vimage-file
p594
Varch/x86/boot/bzImage
p595
sVsigned-code
p596
I00
sVvdso
p597
I01
ss(Vdescription
p598
g582
tp599
(dp600
Vpart-long-pae
p601
VThis kernel requires PAE (Physical Address Extension). This feature is supported by the Intel Pentium Pro/II/III/4/4M/D, Xeon, Core and Atom; AMD Geode NX, Athlon (K7), Duron, Opteron, Sempron, Turion or Phenom; Transmeta Efficeon; VIA C7; and some other processors.
p602
ss(Vimage
p603
g582
tp604
(dp605
Vbootloaders
p606
(lp607
Vgrub-pc
p608
aVgrub-efi-ia32
p609
aVextlinux
p610
asVinstall-stem
p611
Vvmlinuz
p612
ss(Vrelations
p613
g582
tp614
(dp615
Vheaders%gcc-13
p616
Vlinux-compiler-gcc-13-x86
p617
ss(Vdescription
p618
g582
NV686
p619
tp620
(dp621
Vhardware
p622
Volder PCs
p623
sVhardware-long
p624
VPCs with one or more processors not supporting PAE
p625
ss(Vdescription
p626
g582
NV686-pae
p627
tp628
(dp629
Vhardware
p630
Vmodern PCs
p631
sVhardware-long
p632
VPCs with one or more processors supporting PAE
p633
sVparts
p634
(lp635
Vpae
p636
ass(Vbase
p637
g582
Vnone
p638
tp639
(dp640
Vflavours
p641
(lp642
V686
p643
aV686-pae
p644
asVdefault-flavour
p645
V686-pae
p646
ss(Vbase
p647
g582
Vrt
p648
tp649
(dp650
Vflavours
p651
(lp652
V686-pae
p653
ass(Vbase
p654
Via64
p655
tp656
(dp657
Vdefault-flavour
p658
Vitanium
p659
sVkernel-arch
p660
Via64
p661
sg190
(lp662
g192
ass(Vbuild
p663
g655
tp664
(dp665
Vimage-file
p666
Vvmlinux.gz
p667
ss(Vimage
p668
g655
tp669
(dp670
Vbootloaders
p671
(lp672
Vgrub-efi-ia64
p673
asVinstall-stem
p674
Vvmlinuz
p675
ss(Vdescription
p676
g655
NVitanium
p677
tp678
(dp679
Vhardware
p680
VItanium (Merced)
p681
sVhardware-long
p682
Vsystems with original Itanium (Merced) processors
p683
ss(Vdescription
p684
g655
NVmckinley
p685
tp686
(dp687
Vhardware
p688
VItanium 2+
p689
sVhardware-long
p690
Vsystems with Itanium 2 or 9300/9500/9700-series processors
p691
ss(g223
g655
g192
tp692
(dp693
g226
(lp694
Vitanium
p695
aVmckinley
p696
asg230
I01
ss(Vbase
p697
Vm68k
p698
tp699
(dp700
Vcflags
p701
V-ffreestanding
p702
sVdefault-flavour
p703
Vm68k
p704
sVkernel-arch
p705
Vm68k
p706
sg190
(lp707
g192
ass(Vbuild
p708
g698
tp709
(dp710
Vimage-file
p711
Vvmlinux
p712
ss(Vimage
p713
g698
tp714
(dp715
Vsuggests
p716
(lp717
Vvmelilo
p718
aVfdutils
p719
asVinstall-stem
p720
Vvmlinux
p721
ss(Vdescription
p722
g698
NVm68k
p723
tp724
(dp725
Vhardware
p726
VMotorola MC68020+ family
p727
ss(g223
g698
g192
tp728
(dp729
g226
(lp730
Vm68k
p731
asg230
I01
ss(Vbase
p732
Vmips
p733
tp734
(dp735
Vkernel-arch
p736
Vmips
p737
sg190
(lp738
g192
ass(Vbuild
p739
g733
tp740
(dp741
Vimage-file
p742
Vvmlinuz
p743
ss(Vimage
p744
g733
tp745
(dp746
Vinstall-stem
p747
Vvmlinuz
p748
ss(Vdescription
p749
g733
NV4kc-malta
p750
tp751
(dp752
Vhardware
p753
VMIPS Malta
p754
sVhardware-long
p755
VMIPS Malta boards
p756
ss(Vimage
p757
g733
NV4kc-malta
p758
tp759
(dp760
Vconfigs
p761
(lp762
Vkernelarch-mips/config.malta
p763
aVkernelarch-mips/config.mips32r2
p764
ass(Vdescription
p765
g733
NVmips32r2eb
p766
tp767
(dp768
Vhardware
p769
VMIPS Generic (mips32r2eb)
p770
sVhardware-long
p771
VMIPS Generic platform (mips32r2eb)
p772
ss(Vimage
p773
g733
NVmips32r2eb
p774
tp775
(dp776
Vconfigs
p777
(lp778
Vkernelarch-mips/config.boston
p779
aVkernelarch-mips/config.mips32r2
p780
ass(Vdescription
p781
g733
NVocteon
p782
tp783
(dp784
Vhardware
p785
VOcteon
p786
sVhardware-long
p787
VCavium Networks Octeon
p788
ss(Vbuild
p789
g733
NVocteon
p790
tp791
(dp792
Vimage-file
p793
Vvmlinux
p794
ss(Vimage
p795
g733
NVocteon
p796
tp797
(dp798
Vinstall-stem
p799
Vvmlinux
p800
sVconfigs
p801
(lp802
Vkernelarch-mips/config.octeon
p803
ass(g223
g733
g192
tp804
(dp805
g226
(lp806
V4kc-malta
p807
aVmips32r2eb
p808
aVocteon
p809
asg230
I01
ss(Vbase
p810
Vmips64
p811
tp812
(dp813
Vkernel-arch
p814
Vmips
p815
sg190
(lp816
g192
ass(Vbuild
p817
g811
tp818
(dp819
Vimage-file
p820
Vvmlinuz
p821
ss(Vimage
p822
g811
tp823
(dp824
Vinstall-stem
p825
Vvmlinuz
p826
ss(Vdescription
p827
g811
NV5kc-malta
p828
tp829
(dp830
Vhardware
p831
VMIPS Malta
p832
sVhardware-long
p833
VMIPS Malta boards
p834
ss(Vimage
p835
g811
NV5kc-malta
p836
tp837
(dp838
Vconfigs
p839
(lp840
Vkernelarch-mips/config.malta
p841
aVkernelarch-mips/config.mips64r2
p842
ass(Vdescription
p843
g811
NVmips64r2eb
p844
tp845
(dp846
Vhardware
p847
VMIPS Generic (mips64r2eb)
p848
sVhardware-long
p849
VMIPS Generic platform (mips64r2eb)
p850
ss(Vimage
p851
g811
NVmips64r2eb
p852
tp853
(dp854
Vconfigs
p855
(lp856
Vkernelarch-mips/config.boston
p857
aVkernelarch-mips/config.mips64r2
p858
ass(Vdescription
p859
g811
NVocteon
p860
tp861
(dp862
Vhardware
p863
VOcteon
p864
sVhardware-long
p865
VCavium Networks Octeon
p866
ss(Vbuild
p867
g811
NVocteon
p868
tp869
(dp870
Vimage-file
p871
Vvmlinux
p872
ss(Vimage
p873
g811
NVocteon
p874
tp875
(dp876
Vinstall-stem
p877
Vvmlinux
p878
sVconfigs
p879
(lp880
Vkernelarch-mips/config.octeon
p881
ass(g223
g811
g192
tp882
(dp883
g226
(lp884
V5kc-malta
p885
aVmips64r2eb
p886
aVocteon
p887
asg230
I01
ss(Vbase
p888
Vmips64el
p889
tp890
(dp891
Vkernel-arch
p892
Vmips
p893
sg190
(lp894
g192
ass(Vbuild
p895
g889
tp896
(dp897
Vimage-file
p898
Vvmlinuz
p899
ss(Vimage
p900
g889
tp901
(dp902
Vinstall-stem
p903
Vvmlinuz
p904
ss(Vdescription
p905
g889
NV5kc-malta
p906
tp907
(dp908
Vhardware
p909
VMIPS Malta
p910
sVhardware-long
p911
VMIPS Malta boards
p912
ss(Vimage
p913
g889
NV5kc-malta
p914
tp915
(dp916
Vconfigs
p917
(lp918
Vkernelarch-mips/config.malta
p919
aVkernelarch-mips/config.mips64r2
p920
ass(Vdescription
p921
g889
NVmips64r2el
p922
tp923
(dp924
Vhardware
p925
VMIPS Generic (mips64r2el)
p926
sVhardware-long
p927
VMIPS Generic platform (mips64r2el)
p928
ss(Vimage
p929
g889
NVmips64r2el
p930
tp931
(dp932
Vconfigs
p933
(lp934
Vkernelarch-mips/config.boston
p935
aVkernelarch-mips/config.mips64r2
p936
ass(Vdescription
p937
g889
NVloongson-3
p938
tp939
(dp940
Vhardware
p941
VLoongson 3A/3B
p942
sVhardware-long
p943
VLoongson 3A or 3B based systems (e.g. from Loongson or Lemote)
p944
ss(Vimage
p945
g889
NVloongson-3
p946
tp947
(dp948
Vrecommends
p949
(lp950
Vpmon-update
p951
asVconfigs
p952
(lp953
Vkernelarch-mips/config.loongson-3
p954
ass(Vdescription
p955
g889
NVocteon
p956
tp957
(dp958
Vhardware
p959
VOcteon
p960
sVhardware-long
p961
VCavium Networks Octeon
p962
ss(Vbuild
p963
g889
NVocteon
p964
tp965
(dp966
Vimage-file
p967
Vvmlinux
p968
ss(Vimage
p969
g889
NVocteon
p970
tp971
(dp972
Vinstall-stem
p973
Vvmlinux
p974
sVconfigs
p975
(lp976
Vkernelarch-mips/config.octeon
p977
ass(g223
g889
g192
tp978
(dp979
g226
(lp980
V5kc-malta
p981
aVmips64r2el
p982
aVloongson-3
p983
aVocteon
p984
asg230
I01
ss(Vbase
p985
Vmips64r6
p986
tp987
(dp988
Vkernel-arch
p989
Vmips
p990
sg190
(lp991
g192
ass(Vbuild
p992
g986
tp993
(dp994
Vimage-file
p995
Vvmlinuz
p996
ss(Vimage
p997
g986
tp998
(dp999
Vinstall-stem
p1000
Vvmlinuz
p1001
ss(Vdescription
p1002
g986
NVmips64r6eb
p1003
tp1004
(dp1005
Vhardware
p1006
VMIPS Generic (mips64r6eb)
p1007
sVhardware-long
p1008
VMIPS Generic platform (mips64r6eb)
p1009
ss(Vimage
p1010
g986
NVmips64r6eb
p1011
tp1012
(dp1013
Vconfigs
p1014
(lp1015
Vkernelarch-mips/config.boston
p1016
aVkernelarch-mips/config.mips64r6
p1017
ass(g223
g986
g192
tp1018
(dp1019
g226
(lp1020
Vmips64r6eb
p1021
asg230
I01
ss(Vbase
p1022
Vmips64r6el
p1023
tp1024
(dp1025
Vkernel-arch
p1026
Vmips
p1027
sg190
(lp1028
g192
ass(Vbuild
p1029
g1023
tp1030
(dp1031
Vimage-file
p1032
Vvmlinuz
p1033
ss(Vimage
p1034
g1023
tp1035
(dp1036
Vinstall-stem
p1037
Vvmlinuz
p1038
ss(Vdescription
p1039
g1023
NVmips64r6el
p1040
tp1041
(dp1042
Vhardware
p1043
VMIPS Generic (mips64r6el)
p1044
sVhardware-long
p1045
VMIPS Generic platform (mips64r6el)
p1046
ss(Vimage
p1047
g1023
NVmips64r6el
p1048
tp1049
(dp1050
Vconfigs
p1051
(lp1052
Vkernelarch-mips/config.boston
p1053
aVkernelarch-mips/config.mips64r6
p1054
ass(g223
g1023
g192
tp1055
(dp1056
g226
(lp1057
Vmips64r6el
p1058
asg230
I01
ss(Vbase
p1059
Vmipsel
p1060
tp1061
(dp1062
Vkernel-arch
p1063
Vmips
p1064
sg190
(lp1065
g192
ass(Vbuild
p1066
g1060
tp1067
(dp1068
Vimage-file
p1069
Vvmlinuz
p1070
ss(Vimage
p1071
g1060
tp1072
(dp1073
Vinstall-stem
p1074
Vvmlinuz
p1075
ss(Vdescription
p1076
g1060
NV4kc-malta
p1077
tp1078
(dp1079
Vhardware
p1080
VMIPS Malta
p1081
sVhardware-long
p1082
VMIPS Malta boards
p1083
ss(Vimage
p1084
g1060
NV4kc-malta
p1085
tp1086
(dp1087
Vconfigs
p1088
(lp1089
Vkernelarch-mips/config.malta
p1090
aVkernelarch-mips/config.mips32r2
p1091
ass(Vdescription
p1092
g1060
NVmips32r2el
p1093
tp1094
(dp1095
Vhardware
p1096
VMIPS Generic (mips32r2el)
p1097
sVhardware-long
p1098
VMIPS Generic platform (mips32r2el)
p1099
ss(Vimage
p1100
g1060
NVmips32r2el
p1101
tp1102
(dp1103
Vconfigs
p1104
(lp1105
Vkernelarch-mips/config.boston
p1106
aVkernelarch-mips/config.mips32r2
p1107
ass(Vdescription
p1108
g1060
NVloongson-3
p1109
tp1110
(dp1111
Vhardware
p1112
VLoongson 3A/3B
p1113
sVhardware-long
p1114
VLoongson 3A or 3B based systems (e.g. from Loongson or Lemote)
p1115
ss(Vimage
p1116
g1060
NVloongson-3
p1117
tp1118
(dp1119
Vrecommends
p1120
(lp1121
Vpmon-update
p1122
asVconfigs
p1123
(lp1124
Vkernelarch-mips/config.loongson-3
p1125
ass(Vdescription
p1126
g1060
NVocteon
p1127
tp1128
(dp1129
Vhardware
p1130
VOcteon
p1131
sVhardware-long
p1132
VCavium Networks Octeon
p1133
ss(Vbuild
p1134
g1060
NVocteon
p1135
tp1136
(dp1137
Vimage-file
p1138
Vvmlinux
p1139
ss(Vimage
p1140
g1060
NVocteon
p1141
tp1142
(dp1143
Vinstall-stem
p1144
Vvmlinux
p1145
sVconfigs
p1146
(lp1147
Vkernelarch-mips/config.octeon
p1148
ass(g223
g1060
g192
tp1149
(dp1150
g226
(lp1151
V4kc-malta
p1152
aVmips32r2el
p1153
aVloongson-3
p1154
aVocteon
p1155
asg230
I01
ss(Vbase
p1156
Vmipsn32
p1157
tp1158
(dp1159
Vkernel-arch
p1160
Vmips
p1161
sVfeaturesets
p1162
(lp1163
ss(Vbase
p1164
Vmipsn32el
p1165
tp1166
(dp1167
Vkernel-arch
p1168
Vmips
p1169
sVfeaturesets
p1170
(lp1171
ss(Vbase
p1172
Vmipsn32r6
p1173
tp1174
(dp1175
Vkernel-arch
p1176
Vmips
p1177
sVfeaturesets
p1178
(lp1179
ss(Vbase
p1180
Vmipsn32r6el
p1181
tp1182
(dp1183
Vkernel-arch
p1184
Vmips
p1185
sVfeaturesets
p1186
(lp1187
ss(Vbase
p1188
Vmipsr6
p1189
tp1190
(dp1191
Vkernel-arch
p1192
Vmips
p1193
sg190
(lp1194
g192
ass(Vbuild
p1195
g1189
tp1196
(dp1197
Vimage-file
p1198
Vvmlinuz
p1199
ss(Vimage
p1200
g1189
tp1201
(dp1202
Vinstall-stem
p1203
Vvmlinuz
p1204
ss(Vdescription
p1205
g1189
NVmips32r6eb
p1206
tp1207
(dp1208
Vhardware
p1209
VMIPS Generic (mips32r6eb)
p1210
sVhardware-long
p1211
VMIPS Generic platform (mips32r6eb)
p1212
ss(Vimage
p1213
g1189
NVmips32r6eb
p1214
tp1215
(dp1216
Vconfigs
p1217
(lp1218
Vkernelarch-mips/config.boston
p1219
aVkernelarch-mips/config.mips32r6
p1220
ass(g223
g1189
g192
tp1221
(dp1222
g226
(lp1223
Vmips32r6eb
p1224
asg230
I01
ss(Vbase
p1225
Vmipsr6el
p1226
tp1227
(dp1228
Vkernel-arch
p1229
Vmips
p1230
sg190
(lp1231
g192
ass(Vbuild
p1232
g1226
tp1233
(dp1234
Vimage-file
p1235
Vvmlinuz
p1236
ss(Vimage
p1237
g1226
tp1238
(dp1239
Vinstall-stem
p1240
Vvmlinuz
p1241
ss(Vdescription
p1242
g1226
NVmips32r6el
p1243
tp1244
(dp1245
Vhardware
p1246
VMIPS Generic (mips32r6el)
p1247
sVhardware-long
p1248
VMIPS Generic platform (mips32r6el)
p1249
ss(Vimage
p1250
g1226
NVmips32r6el
p1251
tp1252
(dp1253
Vconfigs
p1254
(lp1255
Vkernelarch-mips/config.boston
p1256
aVkernelarch-mips/config.mips32r6
p1257
ass(g223
g1226
g192
tp1258
(dp1259
g226
(lp1260
Vmips32r6el
p1261
asg230
I01
ss(Vbase
p1262
Vpowerpc
p1263
tp1264
(dp1265
Vkernel-arch
p1266
Vpowerpc
p1267
sg190
(lp1268
g192
ass(Vbuild
p1269
g1263
tp1270
(dp1271
Vimage-file
p1272
Vvmlinux
p1273
ss(Vimage
p1274
g1263
tp1275
(dp1276
Vconfigs
p1277
(lp1278
sVbootloaders
p1279
(lp1280
Vgrub-ieee1275
p1281
asVsuggests
p1282
(lp1283
Vmkvmlinuz
p1284
asVinstall-stem
p1285
Vvmlinux
p1286
ss(Vdescription
p1287
g1263
NVpowerpc
p1288
tp1289
(dp1290
Vhardware
p1291
Vuniprocessor 32-bit PowerPC
p1292
ss(Vdescription
p1293
g1263
NVpowerpc-smp
p1294
tp1295
(dp1296
Vhardware
p1297
Vmultiprocessor 32-bit PowerPC
p1298
ss(Vimage
p1299
g1263
NVpowerpc-smp
p1300
tp1301
(dp1302
Vconfigs
p1303
(lp1304
Vpowerpc/config.powerpc
p1305
aVpowerpc/config.powerpc-smp
p1306
ass(Vdescription
p1307
g1263
NVpowerpc64
p1308
tp1309
(dp1310
Vhardware
p1311
V64-bit PowerPC
p1312
ss(Vimage
p1313
g1263
NVpowerpc64
p1314
tp1315
(dp1316
Vconfigs
p1317
(lp1318
Vkernelarch-powerpc/config-arch-64
p1319
aVkernelarch-powerpc/config-arch-64-be
p1320
ass(g223
g1263
g192
tp1321
(dp1322
g226
(lp1323
Vpowerpc
p1324
aVpowerpc-smp
p1325
aVpowerpc64
p1326
asg230
I01
ss(Vbase
p1327
Vppc64
p1328
tp1329
(dp1330
Vdefault-flavour
p1331
Vpowerpc64
p1332
sVkernel-arch
p1333
Vpowerpc
p1334
sg190
(lp1335
g192
ass(Vbuild
p1336
g1328
tp1337
(dp1338
Vimage-file
p1339
Vvmlinux
p1340
ss(Vimage
p1341
g1328
tp1342
(dp1343
Vconfigs
p1344
(lp1345
sVbootloaders
p1346
(lp1347
Vgrub-ieee1275
p1348
asVsuggests
p1349
(lp1350
Vmkvmlinuz
p1351
asVinstall-stem
p1352
Vvmlinux
p1353
ss(Vdescription
p1354
g1328
NVpowerpc64
p1355
tp1356
(dp1357
Vhardware
p1358
V64-bit PowerPC
p1359
ss(Vimage
p1360
g1328
NVpowerpc64
p1361
tp1362
(dp1363
Vconfigs
p1364
(lp1365
Vkernelarch-powerpc/config-arch-64
p1366
aVkernelarch-powerpc/config-arch-64-be
p1367
ass(g223
g1328
g192
tp1368
(dp1369
g226
(lp1370
Vpowerpc64
p1371
asg230
I01
ss(Vbase
p1372
Vppc64el
p1373
tp1374
(dp1375
Vdefault-flavour
p1376
Vpowerpc64le
p1377
sVkernel-arch
p1378
Vpowerpc
p1379
sg190
(lp1380
g192
ass(Vbuild
p1381
g1373
tp1382
(dp1383
Vimage-file
p1384
Vvmlinux
p1385
ss(Vimage
p1386
g1373
tp1387
(dp1388
Vconfigs
p1389
(lp1390
sVbootloaders
p1391
(lp1392
Vgrub-ieee1275
p1393
asVsuggests
p1394
(lp1395
Vmkvmlinuz
p1396
asVinstall-stem
p1397
Vvmlinux
p1398
ss(Vdescription
p1399
g1373
NVpowerpc64le
p1400
tp1401
(dp1402
Vhardware
p1403
VLittle-endian 64-bit PowerPC
p1404
ss(Vimage
p1405
g1373
NVpowerpc64le
p1406
tp1407
(dp1408
Vconfigs
p1409
(lp1410
Vkernelarch-powerpc/config-arch-64
p1411
aVkernelarch-powerpc/config-arch-64-le
p1412
ass(g223
g1373
g192
tp1413
(dp1414
g226
(lp1415
Vpowerpc64le
p1416
asg230
I01
ss(Vbase
p1417
Vriscv64
p1418
tp1419
(dp1420
Vkernel-arch
p1421
Vriscv
p1422
sVfeaturesets
p1423
(lp1424
Vnone
p1425
ass(Vbuild
p1426
g1418
tp1427
(dp1428
Vimage-file
p1429
Varch/riscv/boot/Image
p1430
sVvdso
p1431
I01
ss(Vimage
p1432
g1418
tp1433
(dp1434
Vinstall-stem
p1435
Vvmlinux
p1436
ss(Vdescription
p1437
g1418
NVriscv64
p1438
tp1439
(dp1440
Vhardware
p1441
V64-bit RISC-V platforms
p1442
sVhardware-long
p1443
V64-bit RISC-V platforms
p1444
ss(Vbase
p1445
g1418
Vnone
p1446
tp1447
(dp1448
Vflavours
p1449
(lp1450
Vriscv64
p1451
asVdefault-flavour
p1452
Vriscv64
p1453
ss(Vbase
p1454
Vs390
p1455
tp1456
(dp1457
Vkernel-arch
p1458
Vs390
p1459
sVfeaturesets
p1460
(lp1461
ss(Vbase
p1462
Vs390x
p1463
tp1464
(dp1465
Vdefault-flavour
p1466
Vs390x
p1467
sVkernel-arch
p1468
Vs390
p1469
sg190
(lp1470
g192
ass(Vbuild
p1471
g1463
tp1472
(dp1473
Vimage-file
p1474
Varch/s390/boot/bzImage
p1475
sVvdso
p1476
I01
ss(Vimage
p1477
g1463
tp1478
(dp1479
Vbootloaders
p1480
(lp1481
Vs390-tools
p1482
asVinstall-stem
p1483
Vvmlinuz
p1484
ss(Vrelations
p1485
g1463
tp1486
(dp1487
Vheaders%gcc-13
p1488
Vlinux-compiler-gcc-13-s390
p1489
ss(Vdescription
p1490
g1463
NVs390x
p1491
tp1492
(dp1493
Vhardware
p1494
VIBM zSeries
p1495
ss(g223
g1463
g192
tp1496
(dp1497
g226
(lp1498
Vs390x
p1499
asg230
I01
ss(Vbase
p1500
Vsh3
p1501
tp1502
(dp1503
Vkernel-arch
p1504
Vsh
p1505
sVfeaturesets
p1506
(lp1507
ss(Vbase
p1508
Vsh4
p1509
tp1510
(dp1511
Vkernel-arch
p1512
Vsh
p1513
sg190
(lp1514
g192
ass(Vbuild
p1515
g1509
tp1516
(dp1517
Vimage-file
p1518
Varch/sh/boot/zImage
p1519
ss(Vimage
p1520
g1509
tp1521
(dp1522
Vinstall-stem
p1523
Vvmlinuz
p1524
ss(Vdescription
p1525
g1509
NVsh7751r
p1526
tp1527
(dp1528
Vhardware
p1529
Vsh7751r
p1530
sVhardware-long
p1531
VRenesas SH7751R R2D plus board
p1532
ss(Vdescription
p1533
g1509
NVsh7785lcr
p1534
tp1535
(dp1536
Vhardware
p1537
Vsh7785lcr
p1538
sVhardware-long
p1539
VRenesas SH7785 reference board
p1540
ss(Vimage
p1541
g1509
NVsh7785lcr
p1542
tp1543
(dp1544
Vrecommends
p1545
(lp1546
Vu-boot-tools
p1547
asVcheck-size
p1548
I4194304
ss(g223
g1509
g192
tp1549
(dp1550
g226
(lp1551
Vsh7751r
p1552
aVsh7785lcr
p1553
asg230
I01
ss(Vbase
p1554
Vsparc
p1555
tp1556
(dp1557
Vkernel-arch
p1558
Vsparc
p1559
sVfeaturesets
p1560
(lp1561
ss(Vbase
p1562
Vsparc64
p1563
tp1564
(dp1565
Vdefault-flavour
p1566
Vsparc64-smp
p1567
sVkernel-arch
p1568
Vsparc
p1569
sg190
(lp1570
g192
ass(Vbuild
p1571
g1563
tp1572
(dp1573
Vimage-file
p1574
Vvmlinux
p1575
ss(Vimage
p1576
g1563
tp1577
(dp1578
Vconfigs
p1579
(lp1580
sVbootloaders
p1581
(lp1582
Vgrub-ieee1275
p1583
asVsuggests
p1584
(lp1585
Vfdutils
p1586
asVinstall-stem
p1587
Vvmlinux
p1588
ss(Vdescription
p1589
g1563
NVsparc64
p1590
tp1591
(dp1592
Vhardware
p1593
Vuniprocessor 64-bit UltraSPARC
p1594
ss(Vimage
p1595
g1563
NVsparc64
p1596
tp1597
(dp1598
Vconfigs
p1599
(lp1600
Vkernelarch-sparc/config-up
p1601
ass(Vdescription
p1602
g1563
NVsparc64-smp
p1603
tp1604
(dp1605
Vhardware
p1606
Vmultiprocessor 64-bit UltraSPARC
p1607
ss(Vimage
p1608
g1563
NVsparc64-smp
p1609
tp1610
(dp1611
Vconfigs
p1612
(lp1613
Vkernelarch-sparc/config-smp
p1614
ass(g223
g1563
g192
tp1615
(dp1616
g226
(lp1617
Vsparc64
p1618
aVsparc64-smp
p1619
asg230
I01
ss(Vbase
p1620
Vx32
p1621
tp1622
(dp1623
Vkernel-arch
p1624
Vx86
p1625
sVfeaturesets
p1626
(lp1627
ss(Vabi
p1628
NVrt
p1629
tp1630
(dp1631
Vignore-changes
p1632
(lp1633
V*
p1634
ass(Vdescription
p1635
Ng1629
tp1636
(dp1637
Vpart-long-rt
p1638
VThis kernel includes the PREEMPT_RT realtime patch set.
p1639
sVpart-short-rt
p1640
VPREEMPT_RT
p1641
sVparts
p1642
(lp1643
Vrt
p1644
ass(Vversion
p1645
tp1646
(dp1647
Vsource
p1648
V6.4.11-1kali1
p1649
sVupstream
p1650
V6.4
p1651
sVabiname_base
p1652
V6.4.0
p1653
sVabiname
p1654
V6.4.0-kali3
p1655
ss.