cdebian_linux.config
ConfigCore
p0
(tRp1
(Vbase
p2
tp3
(dp4
Varches
p5
(lp6
Valpha
p7
aVamd64
p8
aVarm64
p9
aVarmel
p10
aVarmhf
p11
aVhppa
p12
aVi386
p13
aVia64
p14
aVm68k
p15
aVmips
p16
aVmips64
p17
aVmips64el
p18
aVmips64r6el
p19
aVmipsel
p20
aVpowerpc
p21
aVppc64
p22
aVppc64el
p23
aVriscv64
p24
aVs390x
p25
aVsh4
p26
aVsparc64
p27
aVx32
p28
asVcompiler
p29
Vgcc-13
p30
sVfeaturesets
p31
(lp32
Vnone
p33
aVrt
p34
ass(Vbuild
p35
tp36
(dp37
Vsigned-code
p38
I00
ss(Vbase
p39
NVrt
p40
tp41
(dp42
Venabled
p43
I01
ss(Vdescription
p44
tp45
(dp46
Vpart-long-up
p47
VThis kernel is not suitable for SMP (multi-processor, multi-core or hyper-threaded) systems.
p48
ss(Vimage
p49
tp50
(dp51
Vdepends
p52
(lp53
Vinitramfs-tools (>= 0.120+deb8u2) | linux-initramfs-tool
p54
asVbreaks
p55
(lp56
Vfwupdate (<< 12-7)
p57
aVwireless-regdb (<< 2019.06.03-1~)
p58
asVrecommends
p59
(lp60
Vapparmor
p61
ass(Vbase
p62
Valpha
p63
tp64
(dp65
Vdefault-flavour
p66
Valpha-smp
p67
sVkernel-arch
p68
Valpha
p69
sVfeaturesets
p70
(lp71
Vnone
p72
ass(Vbuild
p73
g63
tp74
(dp75
Vimage-file
p76
Varch/alpha/boot/vmlinux.gz
p77
ss(Vimage
p78
g63
tp79
(dp80
Vsuggests
p81
(lp82
Vaboot
p83
aVfdutils
p84
asVinstall-stem
p85
Vvmlinuz
p86
ss(Vdescription
p87
g63
NValpha-generic
p88
tp89
(dp90
Vhardware
p91
VAlpha
p92
sVhardware-long
p93
VDEC Alpha systems with extended kernel start address (Wildfire, Titan, Marvel)
p94
ss(Vpackages
p95
g63
NValpha-generic
p96
tp97
(dp98
Vinstaller
p99
I01
ss(Vdescription
p100
g63
NValpha-smp
p101
tp102
(dp103
Vhardware
p104
VAlpha SMP
p105
sVhardware-long
p106
VDEC Alpha SMP systems with extended kernel start address (Wildfire, Titan, Marvel)
p107
ss(Vbase
p108
g63
g72
tp109
(dp110
Vflavours
p111
(lp112
Valpha-generic
p113
aValpha-smp
p114
asVimplicit-flavour
p115
I01
ss(Vbase
p116
Vamd64
p117
tp118
(dp119
Vfeaturesets
p120
(lp121
Vnone
p122
aVrt
p123
asVkernel-arch
p124
Vx86
p125
ss(Vbuild
p126
g117
tp127
(dp128
Vimage-file
p129
Varch/x86/boot/bzImage
p130
sVsigned-code
p131
I00
sVvdso
p132
I01
ss(Vimage
p133
g117
tp134
(dp135
Vsuggests
p136
(lp137
Vgrub-pc | grub-efi-amd64 | extlinux
p138
asVinstall-stem
p139
Vvmlinuz
p140
ss(Vdescription
p141
g117
NVamd64
p142
tp143
(dp144
Vhardware
p145
V64-bit PCs
p146
sVhardware-long
p147
VPCs with AMD64, Intel 64 or VIA Nano processors
p148
ss(Vdescription
p149
g117
NVcloud-amd64
p150
tp151
(dp152
Vhardware
p153
Vx86-64 cloud
p154
sVhardware-long
p155
Vcloud platforms including Amazon EC2, Microsoft Azure, and Google Compute Engine
p156
ss(Vbase
p157
g117
Vnone
p158
tp159
(dp160
Vflavours
p161
(lp162
Vamd64
p163
aVcloud-amd64
p164
asVdefault-flavour
p165
Vamd64
p166
sVquick-flavour
p167
Vcloud-amd64
p168
ss(Vpackages
p169
g117
g158
Vamd64
p170
tp171
(dp172
Vinstaller
p173
I01
ss(Vimage
p174
g117
g158
Vcloud-amd64
p175
tp176
(dp177
Vconfigs
p178
(lp179
Vconfig.cloud
p180
aVamd64/config.cloud-amd64
p181
ass(Vbase
p182
g117
Vrt
p183
tp184
(dp185
Vflavours
p186
(lp187
Vamd64
p188
ass(Vbase
p189
Varm64
p190
tp191
(dp192
Vcompat-deb-arch
p193
Varmhf
p194
sVcompat-gnu-type
p195
Varm-linux-gnueabihf
p196
sVkernel-arch
p197
Varm64
p198
sVfeaturesets
p199
(lp200
Vnone
p201
aVrt
p202
ass(Vbuild
p203
g190
tp204
(dp205
Vimage-file
p206
Varch/arm64/boot/Image
p207
sVsigned-code
p208
I00
sVvdso
p209
I01
ss(Vimage
p210
g190
tp211
(dp212
Vinstall-stem
p213
Vvmlinuz
p214
ss(Vdescription
p215
g190
NVarm64
p216
tp217
(dp218
Vhardware
p219
V64-bit ARMv8 machines
p220
ss(Vdescription
p221
g190
NVcloud-arm64
p222
tp223
(dp224
Vhardware
p225
Varm64 cloud
p226
sVhardware-long
p227
Vcloud platforms supporting arm64 virtual machines
p228
ss(Vimage
p229
g190
NVarm64
p230
tp231
(dp232
s(Vbase
p233
g190
Vnone
p234
tp235
(dp236
Vflavours
p237
(lp238
Varm64
p239
aVcloud-arm64
p240
asVdefault-flavour
p241
Varm64
p242
sVquick-flavour
p243
Vcloud-arm64
p244
ss(Vpackages
p245
g190
g234
Varm64
p246
tp247
(dp248
Vinstaller
p249
I01
ss(Vimage
p250
g190
g234
Vcloud-arm64
p251
tp252
(dp253
Vconfigs
p254
(lp255
Vconfig.cloud
p256
aVarm64/config.cloud-arm64
p257
ass(Vbase
p258
g190
Vrt
p259
tp260
(dp261
Vflavours
p262
(lp263
Varm64
p264
ass(Vbase
p265
Varmel
p266
tp267
(dp268
Vkernel-arch
p269
Varm
p270
sg70
(lp271
g72
ass(Vbuild
p272
g266
tp273
(dp274
Vimage-file
p275
Varch/arm/boot/zImage
p276
sVuncompressed-image-file
p277
Varch/arm/boot/Image
p278
sVsigned-code
p279
I00
ss(Vimage
p280
g266
tp281
(dp282
Vinstall-stem
p283
Vvmlinuz
p284
ss(Vdescription
p285
g266
NVrpi
p286
tp287
(dp288
Vhardware
p289
VRaspberry Pi Zero, Zero W and 1
p290
sVhardware-long
p291
VRaspberry Pi Zero, Zero W and 1 based systems
p292
ss(g108
g266
g72
tp293
(dp294
g111
(lp295
Vrpi
p296
asg115
I01
ss(Vbase
p297
Varmhf
p298
tp299
(dp300
Vfeaturesets
p301
(lp302
Vnone
p303
aVrt
p304
asVkernel-arch
p305
Varm
p306
ss(Vbuild
p307
g298
tp308
(dp309
Vimage-file
p310
Varch/arm/boot/zImage
p311
sVvdso
p312
I01
sVsigned-code
p313
I00
ss(Vimage
p314
g298
tp315
(dp316
Vinstall-stem
p317
Vvmlinuz
p318
ss(Vdescription
p319
g298
NVarmmp
p320
tp321
(dp322
Vhardware
p323
VARMv7 multiplatform compatible SoCs
p324
sVhardware-long
p325
VARMv7 multiplatform kernel. See https://wiki.debian.org/DebianKernel/ARMMP for details of supported platforms
p326
ss(Vdescription
p327
g298
NVarmmp-lpae
p328
tp329
(dp330
Vhardware
p331
VARMv7 multiplatform compatible SoCs supporting LPAE
p332
sVhardware-long
p333
VARMv7 multiplatform kernel supporting LPAE. See https://wiki.debian.org/DebianKernel/ARMMP for details of supported platforms.
p334
ss(Vbase
p335
g298
Vnone
p336
tp337
(dp338
Vflavours
p339
(lp340
Varmmp
p341
aVarmmp-lpae
p342
asVdefault-flavour
p343
Varmmp
p344
ss(Vpackages
p345
g298
g336
Varmmp
p346
tp347
(dp348
Vinstaller
p349
I01
ss(Vbase
p350
g298
Vrt
p351
tp352
(dp353
Vflavours
p354
(lp355
Varmmp
p356
ass(Vbase
p357
Vhppa
p358
tp359
(dp360
Vdefault-flavour
p361
Vparisc
p362
sVkernel-arch
p363
Vparisc
p364
sg70
(lp365
g72
ass(Vbuild
p366
g358
tp367
(dp368
Vimage-file
p369
Varch/parisc/boot/bzImage
p370
ss(Vimage
p371
g358
tp372
(dp373
Vsuggests
p374
(lp375
Vpalo
p376
asVinstall-stem
p377
Vvmlinuz
p378
ss(Vdescription
p379
g358
NVparisc
p380
tp381
(dp382
Vhardware
p383
V32-bit PA-RISC
p384
sVhardware-long
p385
VHP PA-RISC 32-bit systems with max 4 GB RAM
p386
ss(Vpackages
p387
g358
NVparisc
p388
tp389
(dp390
Vinstaller
p391
I01
ss(Vbase
p392
g358
NVparisc64
p393
tp394
(dp395
Vcflags
p396
V-fno-cse-follow-jumps
p397
sVkernel-deb-arch
p398
Vundefined
p399
sVkernel-gnu-type
p400
Vhppa64-linux-gnu
p401
sVcompat-deb-arch
p402
Vhppa
p403
sVcompat-gnu-type
p404
Vhppa-linux-gnu
p405
ss(Vdescription
p406
g358
NVparisc64
p407
tp408
(dp409
Vhardware
p410
V64-bit PA-RISC
p411
sVhardware-long
p412
VHP PA-RISC 64-bit systems with support for more than 4 GB RAM
p413
ss(Vpackages
p414
g358
NVparisc64
p415
tp416
(dp417
Vinstaller
p418
I01
ss(g108
g358
g72
tp419
(dp420
g111
(lp421
Vparisc
p422
aVparisc64
p423
asg115
I01
ss(Vbase
p424
Vi386
p425
tp426
(dp427
Vfeaturesets
p428
(lp429
Vnone
p430
aVrt
p431
asVkernel-arch
p432
Vx86
p433
ss(Vbuild
p434
g425
tp435
(dp436
Vimage-file
p437
Varch/x86/boot/bzImage
p438
sVsigned-code
p439
I00
sVvdso
p440
I01
ss(Vdescription
p441
g425
tp442
(dp443
Vpart-long-pae
p444
VThis kernel requires PAE (Physical Address Extension). This feature is supported by the Intel Pentium Pro/II/III/4/4M/D, Xeon, Core and Atom; AMD Geode NX, Athlon (K7), Duron, Opteron, Sempron, Turion or Phenom; Transmeta Efficeon; VIA C7; and some other processors.
p445
ss(Vimage
p446
g425
tp447
(dp448
Vsuggests
p449
(lp450
Vgrub-pc | grub-efi-ia32 | extlinux
p451
asVinstall-stem
p452
Vvmlinuz
p453
ss(Vdescription
p454
g425
NV686
p455
tp456
(dp457
Vhardware
p458
Volder PCs
p459
sVhardware-long
p460
VPCs with one or more processors not supporting PAE
p461
ss(Vdescription
p462
g425
NV686-pae
p463
tp464
(dp465
Vhardware
p466
Vmodern PCs
p467
sVhardware-long
p468
VPCs with one or more processors supporting PAE
p469
sVparts
p470
(lp471
Vpae
p472
ass(Vbase
p473
g425
Vnone
p474
tp475
(dp476
Vflavours
p477
(lp478
V686
p479
aV686-pae
p480
asVdefault-flavour
p481
V686-pae
p482
ss(Vpackages
p483
g425
g474
V686
p484
tp485
(dp486
Vinstaller
p487
I01
ss(Vpackages
p488
g425
g474
V686-pae
p489
tp490
(dp491
Vinstaller
p492
I01
ss(Vbase
p493
g425
Vrt
p494
tp495
(dp496
Vflavours
p497
(lp498
V686-pae
p499
ass(Vbase
p500
Via64
p501
tp502
(dp503
Vdefault-flavour
p504
Vitanium
p505
sVkernel-arch
p506
Via64
p507
sVcompiler
p508
Vgcc-12
p509
sg70
(lp510
g72
ass(Vbuild
p511
g501
tp512
(dp513
Vimage-file
p514
Vvmlinux.gz
p515
ss(Vimage
p516
g501
tp517
(dp518
Vsuggests
p519
(lp520
Vgrub-efi-ia64
p521
asVinstall-stem
p522
Vvmlinuz
p523
ss(Vdescription
p524
g501
NVitanium
p525
tp526
(dp527
Vhardware
p528
VItanium (Merced)
p529
sVhardware-long
p530
Vsystems with original Itanium (Merced) processors
p531
ss(Vpackages
p532
g501
NVitanium
p533
tp534
(dp535
Vinstaller
p536
I01
ss(Vdescription
p537
g501
NVmckinley
p538
tp539
(dp540
Vhardware
p541
VItanium 2+
p542
sVhardware-long
p543
Vsystems with Itanium 2 or 9300/9500/9700-series processors
p544
ss(g108
g501
g72
tp545
(dp546
g111
(lp547
Vitanium
p548
aVmckinley
p549
asg115
I01
ss(Vbase
p550
Vm68k
p551
tp552
(dp553
Vcflags
p554
V-ffreestanding
p555
sVdefault-flavour
p556
Vm68k
p557
sVkernel-arch
p558
Vm68k
p559
sg70
(lp560
g72
ass(Vbuild
p561
g551
tp562
(dp563
Vimage-file
p564
Vvmlinux
p565
ss(Vimage
p566
g551
tp567
(dp568
Vsuggests
p569
(lp570
Vvmelilo
p571
aVfdutils
p572
asVinstall-stem
p573
Vvmlinux
p574
ss(Vdescription
p575
g551
NVm68k
p576
tp577
(dp578
Vhardware
p579
VMotorola MC68020+ family
p580
ss(Vpackages
p581
g551
NVm68k
p582
tp583
(dp584
Vinstaller
p585
I01
ss(g108
g551
g72
tp586
(dp587
g111
(lp588
Vm68k
p589
asg115
I01
ss(Vbase
p590
Vmips
p591
tp592
(dp593
Vkernel-arch
p594
Vmips
p595
sg70
(lp596
g72
ass(Vbuild
p597
g591
tp598
(dp599
Vimage-file
p600
Vvmlinuz
p601
ss(Vimage
p602
g591
tp603
(dp604
Vinstall-stem
p605
Vvmlinuz
p606
ss(Vdescription
p607
g591
NV4kc-malta
p608
tp609
(dp610
Vhardware
p611
VMIPS Malta
p612
sVhardware-long
p613
VMIPS Malta boards
p614
ss(Vimage
p615
g591
NV4kc-malta
p616
tp617
(dp618
Vconfigs
p619
(lp620
Vkernelarch-mips/config.malta
p621
aVkernelarch-mips/config.mips32r2
p622
ass(Vpackages
p623
g591
NV4kc-malta
p624
tp625
(dp626
Vinstaller
p627
I01
ss(Vdescription
p628
g591
NVmips32r2eb
p629
tp630
(dp631
Vhardware
p632
VMIPS Generic (mips32r2eb)
p633
sVhardware-long
p634
VMIPS Generic platform (mips32r2eb)
p635
ss(Vimage
p636
g591
NVmips32r2eb
p637
tp638
(dp639
Vconfigs
p640
(lp641
Vkernelarch-mips/config.boston
p642
aVkernelarch-mips/config.mips32r2
p643
ass(Vpackages
p644
g591
NVmips32r2eb
p645
tp646
(dp647
Vinstaller
p648
I01
ss(Vdescription
p649
g591
NVocteon
p650
tp651
(dp652
Vhardware
p653
VOcteon
p654
sVhardware-long
p655
VCavium Networks Octeon
p656
ss(Vbuild
p657
g591
NVocteon
p658
tp659
(dp660
Vimage-file
p661
Vvmlinux
p662
ss(Vimage
p663
g591
NVocteon
p664
tp665
(dp666
Vinstall-stem
p667
Vvmlinux
p668
sVconfigs
p669
(lp670
Vkernelarch-mips/config.octeon
p671
ass(Vpackages
p672
g591
NVocteon
p673
tp674
(dp675
Vinstaller
p676
I01
ss(g108
g591
g72
tp677
(dp678
g111
(lp679
V4kc-malta
p680
aVmips32r2eb
p681
aVocteon
p682
asg115
I01
ss(Vbase
p683
Vmips64
p684
tp685
(dp686
Vkernel-arch
p687
Vmips
p688
sg70
(lp689
g72
ass(Vbuild
p690
g684
tp691
(dp692
Vimage-file
p693
Vvmlinuz
p694
ss(Vimage
p695
g684
tp696
(dp697
Vinstall-stem
p698
Vvmlinuz
p699
ss(Vdescription
p700
g684
NV5kc-malta
p701
tp702
(dp703
Vhardware
p704
VMIPS Malta
p705
sVhardware-long
p706
VMIPS Malta boards
p707
ss(Vimage
p708
g684
NV5kc-malta
p709
tp710
(dp711
Vconfigs
p712
(lp713
Vkernelarch-mips/config.malta
p714
aVkernelarch-mips/config.mips64r2
p715
ass(Vpackages
p716
g684
NV5kc-malta
p717
tp718
(dp719
Vinstaller
p720
I01
ss(Vdescription
p721
g684
NVmips64r2eb
p722
tp723
(dp724
Vhardware
p725
VMIPS Generic (mips64r2eb)
p726
sVhardware-long
p727
VMIPS Generic platform (mips64r2eb)
p728
ss(Vimage
p729
g684
NVmips64r2eb
p730
tp731
(dp732
Vconfigs
p733
(lp734
Vkernelarch-mips/config.boston
p735
aVkernelarch-mips/config.mips64r2
p736
ass(Vpackages
p737
g684
NVmips64r2eb
p738
tp739
(dp740
Vinstaller
p741
I01
ss(Vdescription
p742
g684
NVocteon
p743
tp744
(dp745
Vhardware
p746
VOcteon
p747
sVhardware-long
p748
VCavium Networks Octeon
p749
ss(Vbuild
p750
g684
NVocteon
p751
tp752
(dp753
Vimage-file
p754
Vvmlinux
p755
ss(Vimage
p756
g684
NVocteon
p757
tp758
(dp759
Vinstall-stem
p760
Vvmlinux
p761
sVconfigs
p762
(lp763
Vkernelarch-mips/config.octeon
p764
ass(Vpackages
p765
g684
NVocteon
p766
tp767
(dp768
Vinstaller
p769
I01
ss(g108
g684
g72
tp770
(dp771
g111
(lp772
V5kc-malta
p773
aVmips64r2eb
p774
aVocteon
p775
asg115
I01
ss(Vbase
p776
Vmips64el
p777
tp778
(dp779
Vkernel-arch
p780
Vmips
p781
sg70
(lp782
g72
ass(Vbuild
p783
g777
tp784
(dp785
Vimage-file
p786
Vvmlinuz
p787
ss(Vimage
p788
g777
tp789
(dp790
Vinstall-stem
p791
Vvmlinuz
p792
ss(Vdescription
p793
g777
NV5kc-malta
p794
tp795
(dp796
Vhardware
p797
VMIPS Malta
p798
sVhardware-long
p799
VMIPS Malta boards
p800
ss(Vimage
p801
g777
NV5kc-malta
p802
tp803
(dp804
Vconfigs
p805
(lp806
Vkernelarch-mips/config.malta
p807
aVkernelarch-mips/config.mips64r2
p808
ass(Vpackages
p809
g777
NV5kc-malta
p810
tp811
(dp812
Vinstaller
p813
I01
ss(Vdescription
p814
g777
NVmips64r2el
p815
tp816
(dp817
Vhardware
p818
VMIPS Generic (mips64r2el)
p819
sVhardware-long
p820
VMIPS Generic platform (mips64r2el)
p821
ss(Vimage
p822
g777
NVmips64r2el
p823
tp824
(dp825
Vconfigs
p826
(lp827
Vkernelarch-mips/config.boston
p828
aVkernelarch-mips/config.mips64r2
p829
ass(Vpackages
p830
g777
NVmips64r2el
p831
tp832
(dp833
Vinstaller
p834
I01
ss(Vdescription
p835
g777
NVloongson-3
p836
tp837
(dp838
Vhardware
p839
VLoongson 3A/3B
p840
sVhardware-long
p841
VLoongson 3A or 3B based systems (e.g. from Loongson or Lemote)
p842
ss(Vimage
p843
g777
NVloongson-3
p844
tp845
(dp846
Vrecommends
p847
(lp848
Vpmon-update
p849
asVconfigs
p850
(lp851
Vkernelarch-mips/config.loongson-3
p852
ass(Vpackages
p853
g777
NVloongson-3
p854
tp855
(dp856
Vinstaller
p857
I01
ss(Vdescription
p858
g777
NVocteon
p859
tp860
(dp861
Vhardware
p862
VOcteon
p863
sVhardware-long
p864
VCavium Networks Octeon
p865
ss(Vbuild
p866
g777
NVocteon
p867
tp868
(dp869
Vimage-file
p870
Vvmlinux
p871
ss(Vimage
p872
g777
NVocteon
p873
tp874
(dp875
Vinstall-stem
p876
Vvmlinux
p877
sVconfigs
p878
(lp879
Vkernelarch-mips/config.octeon
p880
ass(Vpackages
p881
g777
NVocteon
p882
tp883
(dp884
Vinstaller
p885
I01
ss(g108
g777
g72
tp886
(dp887
g111
(lp888
V5kc-malta
p889
aVmips64r2el
p890
aVloongson-3
p891
aVocteon
p892
asg115
I01
ss(Vbase
p893
Vmips64r6el
p894
tp895
(dp896
Vkernel-arch
p897
Vmips
p898
sg70
(lp899
g72
ass(Vbuild
p900
g894
tp901
(dp902
Vimage-file
p903
Vvmlinuz
p904
ss(Vimage
p905
g894
tp906
(dp907
Vinstall-stem
p908
Vvmlinuz
p909
ss(Vdescription
p910
g894
NVmips64r6el
p911
tp912
(dp913
Vhardware
p914
VMIPS Generic (mips64r6el)
p915
sVhardware-long
p916
VMIPS Generic platform (mips64r6el)
p917
ss(Vimage
p918
g894
NVmips64r6el
p919
tp920
(dp921
Vconfigs
p922
(lp923
Vkernelarch-mips/config.boston
p924
aVkernelarch-mips/config.mips64r6
p925
ass(Vpackages
p926
g894
NVmips64r6el
p927
tp928
(dp929
Vinstaller
p930
I01
ss(g108
g894
g72
tp931
(dp932
g111
(lp933
Vmips64r6el
p934
asg115
I01
ss(Vbase
p935
Vmipsel
p936
tp937
(dp938
Vkernel-arch
p939
Vmips
p940
sg70
(lp941
g72
ass(Vbuild
p942
g936
tp943
(dp944
Vimage-file
p945
Vvmlinuz
p946
ss(Vimage
p947
g936
tp948
(dp949
Vinstall-stem
p950
Vvmlinuz
p951
ss(Vdescription
p952
g936
NV4kc-malta
p953
tp954
(dp955
Vhardware
p956
VMIPS Malta
p957
sVhardware-long
p958
VMIPS Malta boards
p959
ss(Vimage
p960
g936
NV4kc-malta
p961
tp962
(dp963
Vconfigs
p964
(lp965
Vkernelarch-mips/config.malta
p966
aVkernelarch-mips/config.mips32r2
p967
ass(Vpackages
p968
g936
NV4kc-malta
p969
tp970
(dp971
Vinstaller
p972
I01
ss(Vdescription
p973
g936
NVmips32r2el
p974
tp975
(dp976
Vhardware
p977
VMIPS Generic (mips32r2el)
p978
sVhardware-long
p979
VMIPS Generic platform (mips32r2el)
p980
ss(Vimage
p981
g936
NVmips32r2el
p982
tp983
(dp984
Vconfigs
p985
(lp986
Vkernelarch-mips/config.boston
p987
aVkernelarch-mips/config.mips32r2
p988
ass(Vpackages
p989
g936
NVmips32r2el
p990
tp991
(dp992
Vinstaller
p993
I01
ss(Vdescription
p994
g936
NVloongson-3
p995
tp996
(dp997
Vhardware
p998
VLoongson 3A/3B
p999
sVhardware-long
p1000
VLoongson 3A or 3B based systems (e.g. from Loongson or Lemote)
p1001
ss(Vimage
p1002
g936
NVloongson-3
p1003
tp1004
(dp1005
Vrecommends
p1006
(lp1007
Vpmon-update
p1008
asVconfigs
p1009
(lp1010
Vkernelarch-mips/config.loongson-3
p1011
ass(Vpackages
p1012
g936
NVloongson-3
p1013
tp1014
(dp1015
Vinstaller
p1016
I01
ss(Vdescription
p1017
g936
NVocteon
p1018
tp1019
(dp1020
Vhardware
p1021
VOcteon
p1022
sVhardware-long
p1023
VCavium Networks Octeon
p1024
ss(Vbuild
p1025
g936
NVocteon
p1026
tp1027
(dp1028
Vimage-file
p1029
Vvmlinux
p1030
ss(Vimage
p1031
g936
NVocteon
p1032
tp1033
(dp1034
Vinstall-stem
p1035
Vvmlinux
p1036
sVconfigs
p1037
(lp1038
Vkernelarch-mips/config.octeon
p1039
ass(Vpackages
p1040
g936
NVocteon
p1041
tp1042
(dp1043
Vinstaller
p1044
I01
ss(g108
g936
g72
tp1045
(dp1046
g111
(lp1047
V4kc-malta
p1048
aVmips32r2el
p1049
aVloongson-3
p1050
aVocteon
p1051
asg115
I01
ss(Vbase
p1052
Vpowerpc
p1053
tp1054
(dp1055
Vkernel-arch
p1056
Vpowerpc
p1057
sg70
(lp1058
g72
ass(Vbuild
p1059
g1053
tp1060
(dp1061
Vimage-file
p1062
Vvmlinux
p1063
ss(Vimage
p1064
g1053
tp1065
(dp1066
Vconfigs
p1067
(lp1068
sVsuggests
p1069
(lp1070
Vmkvmlinuz
p1071
aVgrub-ieee1275
p1072
asVinstall-stem
p1073
Vvmlinux
p1074
ss(Vdescription
p1075
g1053
NVpowerpc
p1076
tp1077
(dp1078
Vhardware
p1079
Vuniprocessor 32-bit PowerPC
p1080
ss(Vpackages
p1081
g1053
NVpowerpc
p1082
tp1083
(dp1084
Vinstaller
p1085
I01
ss(Vdescription
p1086
g1053
NVpowerpc-smp
p1087
tp1088
(dp1089
Vhardware
p1090
Vmultiprocessor 32-bit PowerPC
p1091
ss(Vimage
p1092
g1053
NVpowerpc-smp
p1093
tp1094
(dp1095
Vconfigs
p1096
(lp1097
Vpowerpc/config.powerpc
p1098
aVpowerpc/config.powerpc-smp
p1099
ass(Vdescription
p1100
g1053
NVpowerpc64
p1101
tp1102
(dp1103
Vhardware
p1104
V64-bit PowerPC
p1105
ss(Vimage
p1106
g1053
NVpowerpc64
p1107
tp1108
(dp1109
Vconfigs
p1110
(lp1111
Vkernelarch-powerpc/config-arch-64
p1112
aVkernelarch-powerpc/config-arch-64-be
p1113
ass(Vpackages
p1114
g1053
NVpowerpc64
p1115
tp1116
(dp1117
Vinstaller
p1118
I01
ss(g108
g1053
g72
tp1119
(dp1120
g111
(lp1121
Vpowerpc
p1122
aVpowerpc-smp
p1123
aVpowerpc64
p1124
asg115
I01
ss(Vbase
p1125
Vppc64
p1126
tp1127
(dp1128
Vdefault-flavour
p1129
Vpowerpc64
p1130
sVkernel-arch
p1131
Vpowerpc
p1132
sg70
(lp1133
g72
ass(Vbuild
p1134
g1126
tp1135
(dp1136
Vimage-file
p1137
Vvmlinux
p1138
ss(Vimage
p1139
g1126
tp1140
(dp1141
Vconfigs
p1142
(lp1143
sVsuggests
p1144
(lp1145
Vmkvmlinuz
p1146
aVgrub-ieee1275
p1147
asVinstall-stem
p1148
Vvmlinux
p1149
ss(Vdescription
p1150
g1126
NVpowerpc64
p1151
tp1152
(dp1153
Vhardware
p1154
V64-bit PowerPC
p1155
ss(Vimage
p1156
g1126
NVpowerpc64
p1157
tp1158
(dp1159
Vconfigs
p1160
(lp1161
Vkernelarch-powerpc/config-arch-64
p1162
aVkernelarch-powerpc/config-arch-64-be
p1163
ass(Vpackages
p1164
g1126
NVpowerpc64
p1165
tp1166
(dp1167
Vinstaller
p1168
I01
ss(g108
g1126
g72
tp1169
(dp1170
g111
(lp1171
Vpowerpc64
p1172
asg115
I01
ss(Vbase
p1173
Vppc64el
p1174
tp1175
(dp1176
Vdefault-flavour
p1177
Vpowerpc64le
p1178
sVkernel-arch
p1179
Vpowerpc
p1180
sg70
(lp1181
g72
ass(Vbuild
p1182
g1174
tp1183
(dp1184
Vimage-file
p1185
Vvmlinux
p1186
ss(Vimage
p1187
g1174
tp1188
(dp1189
Vconfigs
p1190
(lp1191
sVsuggests
p1192
(lp1193
Vmkvmlinuz
p1194
aVgrub-ieee1275
p1195
asVinstall-stem
p1196
Vvmlinux
p1197
ss(Vdescription
p1198
g1174
NVpowerpc64le
p1199
tp1200
(dp1201
Vhardware
p1202
VLittle-endian 64-bit PowerPC
p1203
ss(Vimage
p1204
g1174
NVpowerpc64le
p1205
tp1206
(dp1207
Vconfigs
p1208
(lp1209
Vkernelarch-powerpc/config-arch-64
p1210
aVkernelarch-powerpc/config-arch-64-le
p1211
ass(Vpackages
p1212
g1174
NVpowerpc64le
p1213
tp1214
(dp1215
Vinstaller
p1216
I01
ss(g108
g1174
g72
tp1217
(dp1218
g111
(lp1219
Vpowerpc64le
p1220
asg115
I01
ss(Vbase
p1221
Vriscv64
p1222
tp1223
(dp1224
Vkernel-arch
p1225
Vriscv
p1226
sVfeaturesets
p1227
(lp1228
Vnone
p1229
ass(Vbuild
p1230
g1222
tp1231
(dp1232
Vimage-file
p1233
Varch/riscv/boot/Image
p1234
sVvdso
p1235
I01
ss(Vimage
p1236
g1222
tp1237
(dp1238
Vinstall-stem
p1239
Vvmlinux
p1240
ss(Vdescription
p1241
g1222
NVriscv64
p1242
tp1243
(dp1244
Vhardware
p1245
V64-bit RISC-V platforms
p1246
sVhardware-long
p1247
V64-bit RISC-V platforms
p1248
ss(Vbase
p1249
g1222
Vnone
p1250
tp1251
(dp1252
Vflavours
p1253
(lp1254
Vriscv64
p1255
asVdefault-flavour
p1256
Vriscv64
p1257
ss(Vpackages
p1258
g1222
g1250
Vriscv64
p1259
tp1260
(dp1261
Vinstaller
p1262
I01
ss(Vbase
p1263
Vs390x
p1264
tp1265
(dp1266
Vdefault-flavour
p1267
Vs390x
p1268
sVkernel-arch
p1269
Vs390
p1270
sg70
(lp1271
g72
ass(Vbuild
p1272
g1264
tp1273
(dp1274
Vimage-file
p1275
Varch/s390/boot/bzImage
p1276
sVvdso
p1277
I01
ss(Vimage
p1278
g1264
tp1279
(dp1280
Vsuggests
p1281
(lp1282
Vs390-tools
p1283
asVinstall-stem
p1284
Vvmlinuz
p1285
ss(Vdescription
p1286
g1264
NVs390x
p1287
tp1288
(dp1289
Vhardware
p1290
VIBM zSeries
p1291
ss(Vpackages
p1292
g1264
NVs390x
p1293
tp1294
(dp1295
Vinstaller
p1296
I01
ss(g108
g1264
g72
tp1297
(dp1298
g111
(lp1299
Vs390x
p1300
asg115
I01
ss(Vbase
p1301
Vsh4
p1302
tp1303
(dp1304
Vkernel-arch
p1305
Vsh
p1306
sg70
(lp1307
g72
ass(Vbuild
p1308
g1302
tp1309
(dp1310
Vimage-file
p1311
Varch/sh/boot/zImage
p1312
ss(Vimage
p1313
g1302
tp1314
(dp1315
Vinstall-stem
p1316
Vvmlinuz
p1317
ss(Vdescription
p1318
g1302
NVsh7751r
p1319
tp1320
(dp1321
Vhardware
p1322
Vsh7751r
p1323
sVhardware-long
p1324
VRenesas SH7751R R2D plus board
p1325
ss(Vpackages
p1326
g1302
NVsh7751r
p1327
tp1328
(dp1329
Vinstaller
p1330
I01
ss(Vdescription
p1331
g1302
NVsh7785lcr
p1332
tp1333
(dp1334
Vhardware
p1335
Vsh7785lcr
p1336
sVhardware-long
p1337
VRenesas SH7785 reference board
p1338
ss(Vimage
p1339
g1302
NVsh7785lcr
p1340
tp1341
(dp1342
Vrecommends
p1343
(lp1344
Vu-boot-tools
p1345
asVcheck-size
p1346
I4194304
ss(Vpackages
p1347
g1302
NVsh7785lcr
p1348
tp1349
(dp1350
Vinstaller
p1351
I01
ss(g108
g1302
g72
tp1352
(dp1353
g111
(lp1354
Vsh7751r
p1355
aVsh7785lcr
p1356
asg115
I01
ss(Vbase
p1357
Vsparc64
p1358
tp1359
(dp1360
Vdefault-flavour
p1361
Vsparc64-smp
p1362
sVkernel-arch
p1363
Vsparc
p1364
sg70
(lp1365
g72
ass(Vbuild
p1366
g1358
tp1367
(dp1368
Vimage-file
p1369
Vvmlinux
p1370
ss(Vimage
p1371
g1358
tp1372
(dp1373
Vconfigs
p1374
(lp1375
sVsuggests
p1376
(lp1377
Vfdutils
p1378
aVgrub-ieee1275
p1379
asVinstall-stem
p1380
Vvmlinux
p1381
ss(Vdescription
p1382
g1358
NVsparc64
p1383
tp1384
(dp1385
Vhardware
p1386
Vuniprocessor 64-bit UltraSPARC
p1387
ss(Vimage
p1388
g1358
NVsparc64
p1389
tp1390
(dp1391
Vconfigs
p1392
(lp1393
Vkernelarch-sparc/config-up
p1394
ass(Vpackages
p1395
g1358
NVsparc64
p1396
tp1397
(dp1398
Vinstaller
p1399
I01
ss(Vdescription
p1400
g1358
NVsparc64-smp
p1401
tp1402
(dp1403
Vhardware
p1404
Vmultiprocessor 64-bit UltraSPARC
p1405
ss(Vimage
p1406
g1358
NVsparc64-smp
p1407
tp1408
(dp1409
Vconfigs
p1410
(lp1411
Vkernelarch-sparc/config-smp
p1412
ass(g108
g1358
g72
tp1413
(dp1414
g111
(lp1415
Vsparc64
p1416
aVsparc64-smp
p1417
asg115
I01
ss(Vbase
p1418
Vx32
p1419
tp1420
(dp1421
Vkernel-arch
p1422
Vx86
p1423
sVfeaturesets
p1424
(lp1425
ss(Vabi
p1426
NVrt
p1427
tp1428
(dp1429
Vignore-changes
p1430
V*
p1431
ss(Vdescription
p1432
Ng1427
tp1433
(dp1434
Vpart-long-rt
p1435
VThis kernel includes the PREEMPT_RT realtime patch set.
p1436
sVpart-short-rt
p1437
VPREEMPT_RT
p1438
sVparts
p1439
(lp1440
Vrt
p1441
ass(Vversion
p1442
tp1443
(dp1444
Vsource
p1445
V6.6.15-2kali1
p1446
sVupstream
p1447
V6.6
p1448
sVabiname_base
p1449
V6.6.15
p1450
sVabiname
p1451
g1450
ss.