cdebian_linux.config
ConfigCore
p0
(tRp1
(Vabi
p2
tp3
(dp4
Vabiname
p5
V2
p6
sVignore-changes
p7
(lp8
V__cpuhp_*
p9
aV__udp_gso_segment
p10
aVbpf_analyzer
p11
aVbpf_offload_dev_create
p12
aVbpf_verifier_log_write
p13
aVcxl_*
p14
aVdax_flush
p15
aVieee80211_nullfunc_get
p16
aVinet_add_protocol
p17
aVinet_del_protocol
p18
aViommu_device_*
p19
aVmm_iommu_*
p20
aVmv_mbus_*
p21
aVperf_*
p22
aVregister_cxl_calls
p23
aVregister_key_type
p24
aVunregister_cxl_calls
p25
aV*_hw_breakpoint
p26
aVmodule:drivers/crypto/ccp/*
p27
aVmodule:drivers/hv/*
p28
aVmodule:drivers/gpu/drm/sun4i/*
p29
aVmodule:drivers/iio/**
p30
aVmodule:drivers/misc/cxl/*
p31
aVmodule:drivers/misc/lis3lv02d/*
p32
aVmodule:drivers/mtd/nand/*
p33
aVmodule:drivers/net/ethernet/**
p34
aVmodule:drivers/net/wireless/**
p35
aVmodule:drivers/nvdimm/*
p36
aVmodule:drivers/nvme/**
p37
aVmodule:drivers/power/supply/bq27xxx_battery
p38
aVmodule:drivers/scsi/cxgbi/*
p39
aVmodule:drivers/scsi/libiscs*
p40
aVmodule:drivers/scsi/qla2xxx/qla2xxx
p41
aVmodule:drivers/scsi/ufs/*
p42
aVmodule:drivers/target/**
p43
aVmodule:drivers/usb/chipidea/**
p44
aVmodule:drivers/usb/gadget/**
p45
aVmodule:drivers/usb/host/**
p46
aVmodule:drivers/usb/musb/**
p47
aVmodule:fs/nfs/**
p48
aVmodule:net/ceph/libceph
p49
aVmodule:net/l2tp/**
p50
aVmodule:net/openvswitch/**
p51
aVmodule:net/rxrpc/rxrpc
p52
aVmodule:net/sctp/**
p53
aVmodule:sound/core/seq/**
p54
aVmodule:sound/firewire/snd-firewire-lib
p55
aVmodule:sound/pci/hda/*
p56
aVbtree_*
p57
aVvisitor*
p58
aVcan_rx_register
p59
aVip6_xmit
p60
aVmodule:net/dccp/dccp
p61
aVmodule:net/rds/rds
p62
aVdevfreq_*
p63
aVdevm_devfreq_*
p64
aVupdate_devfreq
p65
aVmodule:drivers/infiniband/**
p66
aVacpi_ec_add_query_handler
p67
aVacpi_ec_remove_query_handler
p68
aVfirst_ec
p69
aVdebugfs_create_automount
p70
aVmodule:drivers/iio/imu/inv_mpu6050/*
p71
aVdrm_crtc_accurate_vblank_count
p72
aVacpi_nfit_desc_init
p73
aVacpi_nfit_init
p74
aVloop_register_transfer
p75
aVxen_xlate_*
p76
aVnf_nat_masquerade_ipv4_register_notifier
p77
aVnf_nat_masquerade_ipv6_register_notifier
p78
aVdfltcc_*
p79
aVmodule:drivers/scsi/hisi_sas/*
p80
aV__gfn_*
p81
aV__kvmhv_*
p82
aV__kvm_*
p83
aV__xive_vm_h_*
p84
aVgfn_*
p85
aVh_ipi_redirect
p86
aVhalt_poll_ns*
p87
aVkvm_*
p88
aVkvmhv_*
p89
aVkvmppc_*
p90
aVmark_page_dirty
p91
aVvcpu_*
p92
aVmodule:arch/powerpc/kvm/*
p93
aVmodule:arch/s390/kvm/*
p94
aVmodule:arch/x86/kvm/*
p95
aVuv_info
p96
aVxhci_init_driver
p97
aVcheck_var_size
p98
aVcheck_var_size_nonblocking
p99
aVremove_conflicting_pci_framebuffers
p100
aVahci_fill_cmd_slot
p101
aVphylink_create
p102
aVphylink_generic_validate
p103
ass(Vbase
p104
tp105
(dp106
Varches
p107
(lp108
Valpha
p109
aVamd64
p110
aVarm64
p111
aVarm64ilp32
p112
aVarmel
p113
aVarmhf
p114
aVhppa
p115
aVi386
p116
aVia64
p117
aVm68k
p118
aVmips
p119
aVmips64
p120
aVmips64el
p121
aVmips64r6
p122
aVmips64r6el
p123
aVmipsel
p124
aVmipsn32
p125
aVmipsn32el
p126
aVmipsn32r6
p127
aVmipsn32r6el
p128
aVmipsr6
p129
aVmipsr6el
p130
aVpowerpc
p131
aVppc64
p132
aVppc64el
p133
aVriscv64
p134
aVs390
p135
aVs390x
p136
aVsh3
p137
aVsh4
p138
aVsparc
p139
aVsparc64
p140
aVx32
p141
asVcompiler
p142
Vgcc-12
p143
sVfeaturesets
p144
(lp145
Vnone
p146
aVrt
p147
ass(Vbuild
p148
tp149
(dp150
Vsigned-code
p151
I00
sVtrusted-certs
p152
Vdebian/certs/debian-uefi-certs.pem
p153
ss(Vbase
p154
NVrt
p155
tp156
(dp157
Venabled
p158
I01
ss(Vdescription
p159
tp160
(dp161
Vpart-long-up
p162
VThis kernel is not suitable for SMP (multi-processor,\u000amulti-core or hyper-threaded) systems.
p163
ss(Vimage
p164
tp165
(dp166
Vinitramfs-generators
p167
(lp168
Vinitramfs-tools
p169
aVinitramfs-fallback
p170
asVbreaks
p171
(lp172
Vfwupdate (<< 12-7)
p173
aVwireless-regdb (<< 2019.06.03-1~)
p174
asVrecommends
p175
(lp176
Vapparmor
p177
ass(Vrelations
p178
tp179
(dp180
Vgcc-12
p181
Vgcc-12 <!stage1 !cross !pkg.linux.nokernel>, gcc-12-@gnu-type-package@ <!stage1 cross !pkg.linux.nokernel>
p182
sVinitramfs-fallback
p183
Vlinux-initramfs-tool
p184
sVinitramfs-tools
p185
Vinitramfs-tools (>= 0.120+deb8u2)
p186
ss(Vbase
p187
Valpha
p188
tp189
(dp190
Vdefault-flavour
p191
Valpha-smp
p192
sVkernel-arch
p193
Valpha
p194
sVfeaturesets
p195
(lp196
Vnone
p197
ass(Vbuild
p198
g188
tp199
(dp200
Vimage-file
p201
Varch/alpha/boot/vmlinux.gz
p202
ss(Vimage
p203
g188
tp204
(dp205
Vsuggests
p206
(lp207
Vaboot
p208
aVfdutils
p209
asVinstall-stem
p210
Vvmlinuz
p211
ss(Vdescription
p212
g188
NValpha-generic
p213
tp214
(dp215
Vhardware
p216
VAlpha
p217
sVhardware-long
p218
VDEC Alpha systems with extended kernel start address (Wildfire, Titan, Marvel)
p219
ss(Vdescription
p220
g188
NValpha-smp
p221
tp222
(dp223
Vhardware
p224
VAlpha SMP
p225
sVhardware-long
p226
VDEC Alpha SMP systems with extended kernel start address (Wildfire, Titan, Marvel)
p227
ss(Vbase
p228
g188
g197
tp229
(dp230
Vflavours
p231
(lp232
Valpha-generic
p233
aValpha-smp
p234
asVimplicit-flavour
p235
I01
ss(Vbase
p236
Vamd64
p237
tp238
(dp239
Vfeaturesets
p240
(lp241
Vnone
p242
aVrt
p243
asVkernel-arch
p244
Vx86
p245
ss(Vbuild
p246
g237
tp247
(dp248
Vimage-file
p249
Varch/x86/boot/bzImage
p250
sVsigned-code
p251
I01
sVvdso
p252
I01
ss(Vimage
p253
g237
tp254
(dp255
Vbootloaders
p256
(lp257
Vgrub-pc
p258
aVgrub-efi-amd64
p259
aVextlinux
p260
asVinstall-stem
p261
Vvmlinuz
p262
sVbreaks
p263
(lp264
Vxserver-xorg-input-vmmouse (<< 1:13.0.99)
p265
ass(Vrelations
p266
g237
tp267
(dp268
Vheaders%gcc-12
p269
Vlinux-compiler-gcc-12-x86
p270
ss(Vdescription
p271
g237
NVamd64
p272
tp273
(dp274
Vhardware
p275
V64-bit PCs
p276
sVhardware-long
p277
VPCs with AMD64, Intel 64 or VIA Nano processors
p278
ss(Vdescription
p279
g237
NVcloud-amd64
p280
tp281
(dp282
Vhardware
p283
Vx86-64 cloud
p284
sVhardware-long
p285
Vcloud platforms including Amazon EC2, Microsoft Azure, and Google Compute Engine
p286
ss(Vbase
p287
g237
Vnone
p288
tp289
(dp290
Vflavours
p291
(lp292
Vamd64
p293
aVcloud-amd64
p294
asVdefault-flavour
p295
Vamd64
p296
sVquick-flavour
p297
Vcloud-amd64
p298
ss(Vimage
p299
g237
g288
Vcloud-amd64
p300
tp301
(dp302
Vconfigs
p303
(lp304
Vconfig.cloud
p305
aVamd64/config.cloud-amd64
p306
ass(Vbase
p307
g237
Vrt
p308
tp309
(dp310
Vflavours
p311
(lp312
Vamd64
p313
ass(Vbase
p314
Varm64
p315
tp316
(dp317
Vcross-compile-compat
p318
Varm-linux-gnueabihf-
p319
sVkernel-arch
p320
Varm64
p321
sVfeaturesets
p322
(lp323
Vnone
p324
aVrt
p325
ass(Vbuild
p326
g315
tp327
(dp328
Vimage-file
p329
Varch/arm64/boot/Image
p330
sVsigned-code
p331
I01
sVvdso
p332
I01
ss(Vimage
p333
g315
tp334
(dp335
Vinstall-stem
p336
Vvmlinuz
p337
sVbreaks
p338
(lp339
Vlibmozjs185-1.0
p340
aVlibmozjs-24-0 (<< 24.2.0-5.1~)
p341
ass(Vdescription
p342
g315
NVarm64
p343
tp344
(dp345
Vhardware
p346
V64-bit ARMv8 machines
p347
ss(Vdescription
p348
g315
NVcloud-arm64
p349
tp350
(dp351
Vhardware
p352
Varm64 cloud
p353
sVhardware-long
p354
Vcloud platforms supporting arm64 virtual machines
p355
ss(Vimage
p356
g315
NVarm64
p357
tp358
(dp359
s(Vrelations
p360
g315
tp361
(dp362
Vgcc-12
p363
Vgcc-12 <!stage1 !cross !pkg.linux.nokernel>, gcc-12-aarch64-linux-gnu <!stage1 cross !pkg.linux.nokernel>, gcc-arm-linux-gnueabihf <!stage1 !pkg.linux.nokernel>
p364
sVheaders%gcc-12
p365
Vgcc-12
p366
ss(Vbase
p367
g315
Vnone
p368
tp369
(dp370
Vflavours
p371
(lp372
Varm64
p373
aVcloud-arm64
p374
asVdefault-flavour
p375
Varm64
p376
sVquick-flavour
p377
Vcloud-arm64
p378
ss(Vimage
p379
g315
g368
Vcloud-arm64
p380
tp381
(dp382
Vconfigs
p383
(lp384
Vconfig.cloud
p385
aVarm64/config.cloud-arm64
p386
ass(Vbase
p387
g315
Vrt
p388
tp389
(dp390
Vflavours
p391
(lp392
Varm64
p393
ass(Vbase
p394
Varm64ilp32
p395
tp396
(dp397
Vkernel-arch
p398
Varm64
p399
sVfeaturesets
p400
(lp401
ss(Vbase
p402
Varmel
p403
tp404
(dp405
Vkernel-arch
p406
Varm
p407
sg195
(lp408
g197
ass(Vbuild
p409
g403
tp410
(dp411
Vimage-file
p412
Varch/arm/boot/zImage
p413
sVuncompressed-image-file
p414
Varch/arm/boot/Image
p415
ss(Vimage
p416
g403
tp417
(dp418
Vinstall-stem
p419
Vvmlinuz
p420
ss(Vrelations
p421
g403
tp422
(dp423
Vheaders%gcc-12
p424
Vlinux-compiler-gcc-12-arm
p425
ss(Vdescription
p426
g403
NVmarvell
p427
tp428
(dp429
Vhardware
p430
VMarvell Kirkwood/Orion
p431
sVhardware-long
p432
VMarvell Kirkwood and Orion based systems (https://wiki.debian.org/ArmEabiPort#Supported_hardware)
p433
ss(Vdescription
p434
g403
NVrpi
p435
tp436
(dp437
Vhardware
p438
VRaspberry Pi Zero, Zero W and 1
p439
sVhardware-long
p440
VRaspberry Pi Zero, Zero W and 1 based systems
p441
ss(Vimage
p442
g403
NVmarvell
p443
tp444
(dp445
Vrecommends
p446
(lp447
Vu-boot-tools
p448
asVcheck-size
p449
I2729712
sVcheck-size-with-dtb
p450
I01
sVbreaks
p451
(lp452
Vflash-kernel (<< 3.57~)
p453
ass(g228
g403
g197
tp454
(dp455
g231
(lp456
Vmarvell
p457
aVrpi
p458
asg235
I01
ss(Vbase
p459
Varmhf
p460
tp461
(dp462
Vfeaturesets
p463
(lp464
Vnone
p465
aVrt
p466
asVkernel-arch
p467
Varm
p468
ss(Vbuild
p469
g460
tp470
(dp471
Vimage-file
p472
Varch/arm/boot/zImage
p473
sVvdso
p474
I01
ss(Vimage
p475
g460
tp476
(dp477
Vinstall-stem
p478
Vvmlinuz
p479
ss(Vrelations
p480
g460
tp481
(dp482
Vheaders%gcc-12
p483
Vlinux-compiler-gcc-12-arm
p484
ss(Vdescription
p485
g460
NVarmmp
p486
tp487
(dp488
Vhardware
p489
VARMv7 multiplatform compatible SoCs
p490
sVhardware-long
p491
VARMv7 multiplatform kernel. See\u000ahttps://wiki.debian.org/DebianKernel/ARMMP for details of supported\u000aplatforms
p492
ss(Vdescription
p493
g460
NVarmmp-lpae
p494
tp495
(dp496
Vhardware
p497
VARMv7 multiplatform compatible SoCs supporting LPAE
p498
sVhardware-long
p499
VARMv7 multiplatform kernel supporting LPAE. See\u000ahttps://wiki.debian.org/DebianKernel/ARMMP for details of supported\u000aplatforms.
p500
ss(Vbase
p501
g460
Vnone
p502
tp503
(dp504
Vflavours
p505
(lp506
Varmmp
p507
aVarmmp-lpae
p508
asVdefault-flavour
p509
Varmmp
p510
ss(Vbase
p511
g460
Vrt
p512
tp513
(dp514
Vflavours
p515
(lp516
Varmmp
p517
ass(Vbase
p518
Vhppa
p519
tp520
(dp521
Vdefault-flavour
p522
Vparisc
p523
sVkernel-arch
p524
Vparisc
p525
sg195
(lp526
g197
ass(Vbuild
p527
g519
tp528
(dp529
Vimage-file
p530
Varch/parisc/boot/bzImage
p531
ss(Vimage
p532
g519
tp533
(dp534
Vsuggests
p535
(lp536
Vpalo
p537
asVinstall-stem
p538
Vvmlinuz
p539
ss(Vdescription
p540
g519
NVparisc
p541
tp542
(dp543
Vhardware
p544
V32-bit PA-RISC
p545
sVhardware-long
p546
VHP PA-RISC 32-bit systems with max 4 GB RAM
p547
ss(Vbase
p548
g519
NVparisc64
p549
tp550
(dp551
Vcflags
p552
V-fno-cse-follow-jumps
p553
sVoverride-host-type
p554
Vhppa64-linux-gnu
p555
ss(Vdescription
p556
g519
NVparisc64
p557
tp558
(dp559
Vhardware
p560
V64-bit PA-RISC
p561
sVhardware-long
p562
VHP PA-RISC 64-bit systems with support for more than 4 GB RAM
p563
ss(Vrelations
p564
g519
tp565
(dp566
Vgcc-12
p567
Vgcc-12 <!stage1 !cross !pkg.linux.nokernel>, gcc-12-hppa-linux-gnu <!stage1 cross !pkg.linux.nokernel>, binutils-hppa64-linux-gnu <!stage1 !pkg.linux.nokernel>, gcc-12-hppa64-linux-gnu <!stage1 !pkg.linux.nokernel>
p568
ss(g228
g519
g197
tp569
(dp570
g231
(lp571
Vparisc
p572
aVparisc64
p573
asg235
I01
ss(Vbase
p574
Vi386
p575
tp576
(dp577
Vfeaturesets
p578
(lp579
Vnone
p580
aVrt
p581
asVkernel-arch
p582
Vx86
p583
ss(Vbuild
p584
g575
tp585
(dp586
Vimage-file
p587
Varch/x86/boot/bzImage
p588
sVsigned-code
p589
I01
sVvdso
p590
I01
ss(Vdescription
p591
g575
tp592
(dp593
Vpart-long-pae
p594
VThis kernel requires PAE (Physical Address Extension).\u000aThis feature is supported by the Intel Pentium Pro/II/III/4/4M/D, Xeon,\u000aCore and Atom; AMD Geode NX, Athlon (K7), Duron, Opteron, Sempron,\u000aTurion or Phenom; Transmeta Efficeon; VIA C7; and some other processors.
p595
ss(Vimage
p596
g575
tp597
(dp598
Vbootloaders
p599
(lp600
Vgrub-pc
p601
aVgrub-efi-ia32
p602
aVextlinux
p603
asVinstall-stem
p604
Vvmlinuz
p605
sVbreaks
p606
(lp607
Vxserver-xorg-input-vmmouse (<< 1:13.0.99)
p608
ass(Vrelations
p609
g575
tp610
(dp611
Vheaders%gcc-12
p612
Vlinux-compiler-gcc-12-x86
p613
ss(Vdescription
p614
g575
NV686
p615
tp616
(dp617
Vhardware
p618
Volder PCs
p619
sVhardware-long
p620
VPCs with one or more processors not supporting PAE
p621
ss(Vdescription
p622
g575
NV686-pae
p623
tp624
(dp625
Vhardware
p626
Vmodern PCs
p627
sVhardware-long
p628
VPCs with one or more processors supporting PAE
p629
sVparts
p630
(lp631
Vpae
p632
ass(Vbase
p633
g575
Vnone
p634
tp635
(dp636
Vflavours
p637
(lp638
V686
p639
aV686-pae
p640
asVdefault-flavour
p641
V686-pae
p642
ss(Vbase
p643
g575
Vrt
p644
tp645
(dp646
Vflavours
p647
(lp648
V686-pae
p649
ass(Vbase
p650
Via64
p651
tp652
(dp653
Vdefault-flavour
p654
Vitanium
p655
sVkernel-arch
p656
Via64
p657
sg195
(lp658
g197
ass(Vbuild
p659
g651
tp660
(dp661
Vimage-file
p662
Vvmlinux.gz
p663
ss(Vimage
p664
g651
tp665
(dp666
Vbootloaders
p667
(lp668
Vgrub-efi-ia64
p669
asVinstall-stem
p670
Vvmlinuz
p671
ss(Vdescription
p672
g651
NVitanium
p673
tp674
(dp675
Vhardware
p676
VItanium (Merced)
p677
sVhardware-long
p678
Vsystems with original Itanium (Merced) processors
p679
ss(Vdescription
p680
g651
NVmckinley
p681
tp682
(dp683
Vhardware
p684
VItanium 2+
p685
sVhardware-long
p686
Vsystems with Itanium 2 or 9300/9500/9700-series processors
p687
ss(g228
g651
g197
tp688
(dp689
g231
(lp690
Vitanium
p691
aVmckinley
p692
asg235
I01
ss(Vbase
p693
Vm68k
p694
tp695
(dp696
Vcflags
p697
V-ffreestanding
p698
sVdefault-flavour
p699
Vm68k
p700
sVkernel-arch
p701
Vm68k
p702
sg195
(lp703
g197
ass(Vbuild
p704
g694
tp705
(dp706
Vimage-file
p707
Vvmlinux
p708
ss(Vimage
p709
g694
tp710
(dp711
Vsuggests
p712
(lp713
Vvmelilo
p714
aVfdutils
p715
asVinstall-stem
p716
Vvmlinux
p717
ss(Vdescription
p718
g694
NVm68k
p719
tp720
(dp721
Vhardware
p722
VMotorola MC68020+ family
p723
ss(g228
g694
g197
tp724
(dp725
g231
(lp726
Vm68k
p727
asg235
I01
ss(Vbase
p728
Vmips
p729
tp730
(dp731
Vkernel-arch
p732
Vmips
p733
sg195
(lp734
g197
ass(Vbuild
p735
g729
tp736
(dp737
Vimage-file
p738
Vvmlinuz
p739
ss(Vimage
p740
g729
tp741
(dp742
Vinstall-stem
p743
Vvmlinuz
p744
ss(Vdescription
p745
g729
NV4kc-malta
p746
tp747
(dp748
Vhardware
p749
VMIPS Malta
p750
sVhardware-long
p751
VMIPS Malta boards
p752
ss(Vimage
p753
g729
NV4kc-malta
p754
tp755
(dp756
Vconfigs
p757
(lp758
Vkernelarch-mips/config.malta
p759
aVkernelarch-mips/config.mips32r2
p760
ass(Vdescription
p761
g729
NVmips32r2eb
p762
tp763
(dp764
Vhardware
p765
VMIPS Generic (mips32r2eb)
p766
sVhardware-long
p767
VMIPS Generic platform (mips32r2eb)
p768
ss(Vimage
p769
g729
NVmips32r2eb
p770
tp771
(dp772
Vconfigs
p773
(lp774
Vkernelarch-mips/config.boston
p775
aVkernelarch-mips/config.mips32r2
p776
ass(Vdescription
p777
g729
NVocteon
p778
tp779
(dp780
Vhardware
p781
VOcteon
p782
sVhardware-long
p783
VCavium Networks Octeon
p784
ss(Vbuild
p785
g729
NVocteon
p786
tp787
(dp788
Vimage-file
p789
Vvmlinux
p790
ss(Vimage
p791
g729
NVocteon
p792
tp793
(dp794
Vinstall-stem
p795
Vvmlinux
p796
sVconfigs
p797
(lp798
Vkernelarch-mips/config.octeon
p799
ass(g228
g729
g197
tp800
(dp801
g231
(lp802
V4kc-malta
p803
aVmips32r2eb
p804
aVocteon
p805
asg235
I01
ss(Vbase
p806
Vmips64
p807
tp808
(dp809
Vkernel-arch
p810
Vmips
p811
sg195
(lp812
g197
ass(Vbuild
p813
g807
tp814
(dp815
Vimage-file
p816
Vvmlinuz
p817
ss(Vimage
p818
g807
tp819
(dp820
Vinstall-stem
p821
Vvmlinuz
p822
ss(Vdescription
p823
g807
NV5kc-malta
p824
tp825
(dp826
Vhardware
p827
VMIPS Malta
p828
sVhardware-long
p829
VMIPS Malta boards
p830
ss(Vimage
p831
g807
NV5kc-malta
p832
tp833
(dp834
Vconfigs
p835
(lp836
Vkernelarch-mips/config.malta
p837
aVkernelarch-mips/config.mips64r2
p838
ass(Vdescription
p839
g807
NVmips64r2eb
p840
tp841
(dp842
Vhardware
p843
VMIPS Generic (mips64r2eb)
p844
sVhardware-long
p845
VMIPS Generic platform (mips64r2eb)
p846
ss(Vimage
p847
g807
NVmips64r2eb
p848
tp849
(dp850
Vconfigs
p851
(lp852
Vkernelarch-mips/config.boston
p853
aVkernelarch-mips/config.mips64r2
p854
ass(Vdescription
p855
g807
NVocteon
p856
tp857
(dp858
Vhardware
p859
VOcteon
p860
sVhardware-long
p861
VCavium Networks Octeon
p862
ss(Vbuild
p863
g807
NVocteon
p864
tp865
(dp866
Vimage-file
p867
Vvmlinux
p868
ss(Vimage
p869
g807
NVocteon
p870
tp871
(dp872
Vinstall-stem
p873
Vvmlinux
p874
sVconfigs
p875
(lp876
Vkernelarch-mips/config.octeon
p877
ass(g228
g807
g197
tp878
(dp879
g231
(lp880
V5kc-malta
p881
aVmips64r2eb
p882
aVocteon
p883
asg235
I01
ss(Vbase
p884
Vmips64el
p885
tp886
(dp887
Vkernel-arch
p888
Vmips
p889
sg195
(lp890
g197
ass(Vbuild
p891
g885
tp892
(dp893
Vimage-file
p894
Vvmlinuz
p895
ss(Vimage
p896
g885
tp897
(dp898
Vinstall-stem
p899
Vvmlinuz
p900
ss(Vdescription
p901
g885
NV5kc-malta
p902
tp903
(dp904
Vhardware
p905
VMIPS Malta
p906
sVhardware-long
p907
VMIPS Malta boards
p908
ss(Vimage
p909
g885
NV5kc-malta
p910
tp911
(dp912
Vconfigs
p913
(lp914
Vkernelarch-mips/config.malta
p915
aVkernelarch-mips/config.mips64r2
p916
ass(Vdescription
p917
g885
NVmips64r2el
p918
tp919
(dp920
Vhardware
p921
VMIPS Generic (mips64r2el)
p922
sVhardware-long
p923
VMIPS Generic platform (mips64r2el)
p924
ss(Vimage
p925
g885
NVmips64r2el
p926
tp927
(dp928
Vconfigs
p929
(lp930
Vkernelarch-mips/config.boston
p931
aVkernelarch-mips/config.mips64r2
p932
ass(Vdescription
p933
g885
NVloongson-3
p934
tp935
(dp936
Vhardware
p937
VLoongson 3A/3B
p938
sVhardware-long
p939
VLoongson 3A or 3B based systems (e.g. from Loongson or Lemote)
p940
ss(Vimage
p941
g885
NVloongson-3
p942
tp943
(dp944
Vrecommends
p945
(lp946
Vpmon-update
p947
asVconfigs
p948
(lp949
Vkernelarch-mips/config.loongson-3
p950
ass(Vdescription
p951
g885
NVocteon
p952
tp953
(dp954
Vhardware
p955
VOcteon
p956
sVhardware-long
p957
VCavium Networks Octeon
p958
ss(Vbuild
p959
g885
NVocteon
p960
tp961
(dp962
Vimage-file
p963
Vvmlinux
p964
ss(Vimage
p965
g885
NVocteon
p966
tp967
(dp968
Vinstall-stem
p969
Vvmlinux
p970
sVconfigs
p971
(lp972
Vkernelarch-mips/config.octeon
p973
ass(g228
g885
g197
tp974
(dp975
g231
(lp976
V5kc-malta
p977
aVmips64r2el
p978
aVloongson-3
p979
aVocteon
p980
asg235
I01
ss(Vbase
p981
Vmips64r6
p982
tp983
(dp984
Vkernel-arch
p985
Vmips
p986
sg195
(lp987
g197
ass(Vbuild
p988
g982
tp989
(dp990
Vimage-file
p991
Vvmlinuz
p992
ss(Vimage
p993
g982
tp994
(dp995
Vinstall-stem
p996
Vvmlinuz
p997
ss(Vdescription
p998
g982
NVmips64r6eb
p999
tp1000
(dp1001
Vhardware
p1002
VMIPS Generic (mips64r6eb)
p1003
sVhardware-long
p1004
VMIPS Generic platform (mips64r6eb)
p1005
ss(Vimage
p1006
g982
NVmips64r6eb
p1007
tp1008
(dp1009
Vconfigs
p1010
(lp1011
Vkernelarch-mips/config.boston
p1012
aVkernelarch-mips/config.mips64r6
p1013
ass(g228
g982
g197
tp1014
(dp1015
g231
(lp1016
Vmips64r6eb
p1017
asg235
I01
ss(Vbase
p1018
Vmips64r6el
p1019
tp1020
(dp1021
Vkernel-arch
p1022
Vmips
p1023
sg195
(lp1024
g197
ass(Vbuild
p1025
g1019
tp1026
(dp1027
Vimage-file
p1028
Vvmlinuz
p1029
ss(Vimage
p1030
g1019
tp1031
(dp1032
Vinstall-stem
p1033
Vvmlinuz
p1034
ss(Vdescription
p1035
g1019
NVmips64r6el
p1036
tp1037
(dp1038
Vhardware
p1039
VMIPS Generic (mips64r6el)
p1040
sVhardware-long
p1041
VMIPS Generic platform (mips64r6el)
p1042
ss(Vimage
p1043
g1019
NVmips64r6el
p1044
tp1045
(dp1046
Vconfigs
p1047
(lp1048
Vkernelarch-mips/config.boston
p1049
aVkernelarch-mips/config.mips64r6
p1050
ass(g228
g1019
g197
tp1051
(dp1052
g231
(lp1053
Vmips64r6el
p1054
asg235
I01
ss(Vbase
p1055
Vmipsel
p1056
tp1057
(dp1058
Vkernel-arch
p1059
Vmips
p1060
sg195
(lp1061
g197
ass(Vbuild
p1062
g1056
tp1063
(dp1064
Vimage-file
p1065
Vvmlinuz
p1066
ss(Vimage
p1067
g1056
tp1068
(dp1069
Vinstall-stem
p1070
Vvmlinuz
p1071
ss(Vdescription
p1072
g1056
NV4kc-malta
p1073
tp1074
(dp1075
Vhardware
p1076
VMIPS Malta
p1077
sVhardware-long
p1078
VMIPS Malta boards
p1079
ss(Vimage
p1080
g1056
NV4kc-malta
p1081
tp1082
(dp1083
Vconfigs
p1084
(lp1085
Vkernelarch-mips/config.malta
p1086
aVkernelarch-mips/config.mips32r2
p1087
ass(Vdescription
p1088
g1056
NVmips32r2el
p1089
tp1090
(dp1091
Vhardware
p1092
VMIPS Generic (mips32r2el)
p1093
sVhardware-long
p1094
VMIPS Generic platform (mips32r2el)
p1095
ss(Vimage
p1096
g1056
NVmips32r2el
p1097
tp1098
(dp1099
Vconfigs
p1100
(lp1101
Vkernelarch-mips/config.boston
p1102
aVkernelarch-mips/config.mips32r2
p1103
ass(Vdescription
p1104
g1056
NVloongson-3
p1105
tp1106
(dp1107
Vhardware
p1108
VLoongson 3A/3B
p1109
sVhardware-long
p1110
VLoongson 3A or 3B based systems (e.g. from Loongson or Lemote)
p1111
ss(Vimage
p1112
g1056
NVloongson-3
p1113
tp1114
(dp1115
Vrecommends
p1116
(lp1117
Vpmon-update
p1118
asVconfigs
p1119
(lp1120
Vkernelarch-mips/config.loongson-3
p1121
ass(Vdescription
p1122
g1056
NVocteon
p1123
tp1124
(dp1125
Vhardware
p1126
VOcteon
p1127
sVhardware-long
p1128
VCavium Networks Octeon
p1129
ss(Vbuild
p1130
g1056
NVocteon
p1131
tp1132
(dp1133
Vimage-file
p1134
Vvmlinux
p1135
ss(Vimage
p1136
g1056
NVocteon
p1137
tp1138
(dp1139
Vinstall-stem
p1140
Vvmlinux
p1141
sVconfigs
p1142
(lp1143
Vkernelarch-mips/config.octeon
p1144
ass(g228
g1056
g197
tp1145
(dp1146
g231
(lp1147
V4kc-malta
p1148
aVmips32r2el
p1149
aVloongson-3
p1150
aVocteon
p1151
asg235
I01
ss(Vbase
p1152
Vmipsn32
p1153
tp1154
(dp1155
Vkernel-arch
p1156
Vmips
p1157
sVfeaturesets
p1158
(lp1159
ss(Vbase
p1160
Vmipsn32el
p1161
tp1162
(dp1163
Vkernel-arch
p1164
Vmips
p1165
sVfeaturesets
p1166
(lp1167
ss(Vbase
p1168
Vmipsn32r6
p1169
tp1170
(dp1171
Vkernel-arch
p1172
Vmips
p1173
sVfeaturesets
p1174
(lp1175
ss(Vbase
p1176
Vmipsn32r6el
p1177
tp1178
(dp1179
Vkernel-arch
p1180
Vmips
p1181
sVfeaturesets
p1182
(lp1183
ss(Vbase
p1184
Vmipsr6
p1185
tp1186
(dp1187
Vkernel-arch
p1188
Vmips
p1189
sg195
(lp1190
g197
ass(Vbuild
p1191
g1185
tp1192
(dp1193
Vimage-file
p1194
Vvmlinuz
p1195
ss(Vimage
p1196
g1185
tp1197
(dp1198
Vinstall-stem
p1199
Vvmlinuz
p1200
ss(Vdescription
p1201
g1185
NVmips32r6eb
p1202
tp1203
(dp1204
Vhardware
p1205
VMIPS Generic (mips32r6eb)
p1206
sVhardware-long
p1207
VMIPS Generic platform (mips32r6eb)
p1208
ss(Vimage
p1209
g1185
NVmips32r6eb
p1210
tp1211
(dp1212
Vconfigs
p1213
(lp1214
Vkernelarch-mips/config.boston
p1215
aVkernelarch-mips/config.mips32r6
p1216
ass(g228
g1185
g197
tp1217
(dp1218
g231
(lp1219
Vmips32r6eb
p1220
asg235
I01
ss(Vbase
p1221
Vmipsr6el
p1222
tp1223
(dp1224
Vkernel-arch
p1225
Vmips
p1226
sg195
(lp1227
g197
ass(Vbuild
p1228
g1222
tp1229
(dp1230
Vimage-file
p1231
Vvmlinuz
p1232
ss(Vimage
p1233
g1222
tp1234
(dp1235
Vinstall-stem
p1236
Vvmlinuz
p1237
ss(Vdescription
p1238
g1222
NVmips32r6el
p1239
tp1240
(dp1241
Vhardware
p1242
VMIPS Generic (mips32r6el)
p1243
sVhardware-long
p1244
VMIPS Generic platform (mips32r6el)
p1245
ss(Vimage
p1246
g1222
NVmips32r6el
p1247
tp1248
(dp1249
Vconfigs
p1250
(lp1251
Vkernelarch-mips/config.boston
p1252
aVkernelarch-mips/config.mips32r6
p1253
ass(g228
g1222
g197
tp1254
(dp1255
g231
(lp1256
Vmips32r6el
p1257
asg235
I01
ss(Vbase
p1258
Vpowerpc
p1259
tp1260
(dp1261
Vkernel-arch
p1262
Vpowerpc
p1263
sg195
(lp1264
g197
ass(Vbuild
p1265
g1259
tp1266
(dp1267
Vimage-file
p1268
Vvmlinux
p1269
ss(Vimage
p1270
g1259
tp1271
(dp1272
Vconfigs
p1273
(lp1274
sVbootloaders
p1275
(lp1276
Vgrub-ieee1275
p1277
asVsuggests
p1278
(lp1279
Vmkvmlinuz
p1280
asVinstall-stem
p1281
Vvmlinux
p1282
ss(Vdescription
p1283
g1259
NVpowerpc
p1284
tp1285
(dp1286
Vhardware
p1287
Vuniprocessor 32-bit PowerPC
p1288
ss(Vdescription
p1289
g1259
NVpowerpc-smp
p1290
tp1291
(dp1292
Vhardware
p1293
Vmultiprocessor 32-bit PowerPC
p1294
ss(Vimage
p1295
g1259
NVpowerpc-smp
p1296
tp1297
(dp1298
Vconfigs
p1299
(lp1300
Vpowerpc/config.powerpc
p1301
aVpowerpc/config.powerpc-smp
p1302
ass(Vdescription
p1303
g1259
NVpowerpc64
p1304
tp1305
(dp1306
Vhardware
p1307
V64-bit PowerPC
p1308
ss(Vimage
p1309
g1259
NVpowerpc64
p1310
tp1311
(dp1312
Vconfigs
p1313
(lp1314
Vkernelarch-powerpc/config-arch-64
p1315
aVkernelarch-powerpc/config-arch-64-be
p1316
ass(g228
g1259
g197
tp1317
(dp1318
g231
(lp1319
Vpowerpc
p1320
aVpowerpc-smp
p1321
aVpowerpc64
p1322
asg235
I01
ss(Vbase
p1323
Vppc64
p1324
tp1325
(dp1326
Vdefault-flavour
p1327
Vpowerpc64
p1328
sVkernel-arch
p1329
Vpowerpc
p1330
sg195
(lp1331
g197
ass(Vbuild
p1332
g1324
tp1333
(dp1334
Vimage-file
p1335
Vvmlinux
p1336
ss(Vimage
p1337
g1324
tp1338
(dp1339
Vconfigs
p1340
(lp1341
sVbootloaders
p1342
(lp1343
Vgrub-ieee1275
p1344
asVsuggests
p1345
(lp1346
Vmkvmlinuz
p1347
asVinstall-stem
p1348
Vvmlinux
p1349
ss(Vdescription
p1350
g1324
NVpowerpc64
p1351
tp1352
(dp1353
Vhardware
p1354
V64-bit PowerPC
p1355
ss(Vimage
p1356
g1324
NVpowerpc64
p1357
tp1358
(dp1359
Vconfigs
p1360
(lp1361
Vkernelarch-powerpc/config-arch-64
p1362
aVkernelarch-powerpc/config-arch-64-be
p1363
ass(g228
g1324
g197
tp1364
(dp1365
g231
(lp1366
Vpowerpc64
p1367
asg235
I01
ss(Vbase
p1368
Vppc64el
p1369
tp1370
(dp1371
Vdefault-flavour
p1372
Vpowerpc64le
p1373
sVkernel-arch
p1374
Vpowerpc
p1375
sg195
(lp1376
g197
ass(Vbuild
p1377
g1369
tp1378
(dp1379
Vimage-file
p1380
Vvmlinux
p1381
ss(Vimage
p1382
g1369
tp1383
(dp1384
Vconfigs
p1385
(lp1386
sVbootloaders
p1387
(lp1388
Vgrub-ieee1275
p1389
asVsuggests
p1390
(lp1391
Vmkvmlinuz
p1392
asVinstall-stem
p1393
Vvmlinux
p1394
ss(Vdescription
p1395
g1369
NVpowerpc64le
p1396
tp1397
(dp1398
Vhardware
p1399
VLittle-endian 64-bit PowerPC
p1400
ss(Vimage
p1401
g1369
NVpowerpc64le
p1402
tp1403
(dp1404
Vconfigs
p1405
(lp1406
Vkernelarch-powerpc/config-arch-64
p1407
aVkernelarch-powerpc/config-arch-64-le
p1408
ass(g228
g1369
g197
tp1409
(dp1410
g231
(lp1411
Vpowerpc64le
p1412
asg235
I01
ss(Vbase
p1413
Vriscv64
p1414
tp1415
(dp1416
Vkernel-arch
p1417
Vriscv
p1418
sVfeaturesets
p1419
(lp1420
Vnone
p1421
ass(Vbuild
p1422
g1414
tp1423
(dp1424
Vimage-file
p1425
Varch/riscv/boot/Image
p1426
sVvdso
p1427
I01
ss(Vimage
p1428
g1414
tp1429
(dp1430
Vinstall-stem
p1431
Vvmlinux
p1432
ss(Vdescription
p1433
g1414
NVriscv64
p1434
tp1435
(dp1436
Vhardware
p1437
V64-bit RISC-V platforms
p1438
sVhardware-long
p1439
V64-bit RISC-V platforms
p1440
ss(Vbase
p1441
g1414
Vnone
p1442
tp1443
(dp1444
Vflavours
p1445
(lp1446
Vriscv64
p1447
asVdefault-flavour
p1448
Vriscv64
p1449
ss(Vbase
p1450
Vs390
p1451
tp1452
(dp1453
Vkernel-arch
p1454
Vs390
p1455
sVfeaturesets
p1456
(lp1457
ss(Vbase
p1458
Vs390x
p1459
tp1460
(dp1461
Vdefault-flavour
p1462
Vs390x
p1463
sVkernel-arch
p1464
Vs390
p1465
sg195
(lp1466
g197
ass(Vbuild
p1467
g1459
tp1468
(dp1469
Vimage-file
p1470
Varch/s390/boot/bzImage
p1471
sVvdso
p1472
I01
ss(Vimage
p1473
g1459
tp1474
(dp1475
Vbootloaders
p1476
(lp1477
Vs390-tools
p1478
asVinstall-stem
p1479
Vvmlinuz
p1480
ss(Vrelations
p1481
g1459
tp1482
(dp1483
Vheaders%gcc-12
p1484
Vlinux-compiler-gcc-12-s390
p1485
ss(Vdescription
p1486
g1459
NVs390x
p1487
tp1488
(dp1489
Vhardware
p1490
VIBM zSeries
p1491
ss(g228
g1459
g197
tp1492
(dp1493
g231
(lp1494
Vs390x
p1495
asg235
I01
ss(Vbase
p1496
Vsh3
p1497
tp1498
(dp1499
Vkernel-arch
p1500
Vsh
p1501
sVfeaturesets
p1502
(lp1503
ss(Vbase
p1504
Vsh4
p1505
tp1506
(dp1507
Vkernel-arch
p1508
Vsh
p1509
sg195
(lp1510
g197
ass(Vbuild
p1511
g1505
tp1512
(dp1513
Vimage-file
p1514
Varch/sh/boot/zImage
p1515
ss(Vimage
p1516
g1505
tp1517
(dp1518
Vinstall-stem
p1519
Vvmlinuz
p1520
ss(Vdescription
p1521
g1505
NVsh7751r
p1522
tp1523
(dp1524
Vhardware
p1525
Vsh7751r
p1526
sVhardware-long
p1527
VRenesas SH7751R R2D plus board
p1528
ss(Vdescription
p1529
g1505
NVsh7785lcr
p1530
tp1531
(dp1532
Vhardware
p1533
Vsh7785lcr
p1534
sVhardware-long
p1535
VRenesas SH7785 reference board
p1536
ss(Vimage
p1537
g1505
NVsh7785lcr
p1538
tp1539
(dp1540
Vrecommends
p1541
(lp1542
Vu-boot-tools
p1543
asVcheck-size
p1544
I4194304
ss(g228
g1505
g197
tp1545
(dp1546
g231
(lp1547
Vsh7751r
p1548
aVsh7785lcr
p1549
asg235
I01
ss(Vbase
p1550
Vsparc
p1551
tp1552
(dp1553
Vkernel-arch
p1554
Vsparc
p1555
sVfeaturesets
p1556
(lp1557
ss(Vbase
p1558
Vsparc64
p1559
tp1560
(dp1561
Vdefault-flavour
p1562
Vsparc64-smp
p1563
sVkernel-arch
p1564
Vsparc
p1565
sg195
(lp1566
g197
ass(Vbuild
p1567
g1559
tp1568
(dp1569
Vimage-file
p1570
Vvmlinux
p1571
ss(Vimage
p1572
g1559
tp1573
(dp1574
Vconfigs
p1575
(lp1576
sVbootloaders
p1577
(lp1578
Vgrub-ieee1275
p1579
asVsuggests
p1580
(lp1581
Vfdutils
p1582
asVinstall-stem
p1583
Vvmlinux
p1584
ss(Vdescription
p1585
g1559
NVsparc64
p1586
tp1587
(dp1588
Vhardware
p1589
Vuniprocessor 64-bit UltraSPARC
p1590
ss(Vimage
p1591
g1559
NVsparc64
p1592
tp1593
(dp1594
Vconfigs
p1595
(lp1596
Vkernelarch-sparc/config-up
p1597
ass(Vdescription
p1598
g1559
NVsparc64-smp
p1599
tp1600
(dp1601
Vhardware
p1602
Vmultiprocessor 64-bit UltraSPARC
p1603
ss(Vimage
p1604
g1559
NVsparc64-smp
p1605
tp1606
(dp1607
Vconfigs
p1608
(lp1609
Vkernelarch-sparc/config-smp
p1610
ass(g228
g1559
g197
tp1611
(dp1612
g231
(lp1613
Vsparc64
p1614
aVsparc64-smp
p1615
asg235
I01
ss(Vbase
p1616
Vx32
p1617
tp1618
(dp1619
Vkernel-arch
p1620
Vx86
p1621
sVfeaturesets
p1622
(lp1623
ss(Vabi
p1624
NVrt
p1625
tp1626
(dp1627
Vignore-changes
p1628
(lp1629
V*
p1630
ass(Vdescription
p1631
Ng1625
tp1632
(dp1633
Vpart-long-rt
p1634
VThis kernel includes the PREEMPT_RT realtime patch set.
p1635
sVpart-short-rt
p1636
VPREEMPT_RT
p1637
sVparts
p1638
(lp1639
Vrt
p1640
ass(Vversion
p1641
tp1642
(dp1643
Vsource
p1644
V6.0.6-2
p1645
sVupstream
p1646
V6.0
p1647
sVabiname_base
p1648
V6.0.0
p1649
sVabiname
p1650
V6.0.0-2
p1651
ss.