cdebian_linux.config
ConfigCore
p0
(tRp1
(Vabi
p2
tp3
(dp4
Vabiname
p5
Vkali9
p6
sVignore-changes
p7
(lp8
V__cpuhp_*
p9
aV__udp_gso_segment
p10
aVbpf_analyzer
p11
aVbpf_offload_dev_create
p12
aVbpf_verifier_log_write
p13
aVcxl_*
p14
aVdax_flush
p15
aVieee80211_nullfunc_get
p16
aVinet_add_protocol
p17
aVinet_del_protocol
p18
aViommu_device_*
p19
aVmm_iommu_*
p20
aVmv_mbus_*
p21
aVperf_*
p22
aVregister_cxl_calls
p23
aVregister_key_type
p24
aVunregister_cxl_calls
p25
aV*_hw_breakpoint
p26
aVmodule:drivers/crypto/ccp/*
p27
aVmodule:drivers/hv/*
p28
aVmodule:drivers/gpu/drm/sun4i/*
p29
aVmodule:drivers/iio/**
p30
aVmodule:drivers/misc/cxl/*
p31
aVmodule:drivers/misc/lis3lv02d/*
p32
aVmodule:drivers/mtd/nand/*
p33
aVmodule:drivers/net/ethernet/**
p34
aVmodule:drivers/net/wireless/**
p35
aVmodule:drivers/nvdimm/*
p36
aVmodule:drivers/nvme/**
p37
aVmodule:drivers/power/supply/bq27xxx_battery
p38
aVmodule:drivers/scsi/cxgbi/*
p39
aVmodule:drivers/scsi/libiscs*
p40
aVmodule:drivers/scsi/qla2xxx/qla2xxx
p41
aVmodule:drivers/scsi/ufs/*
p42
aVmodule:drivers/target/**
p43
aVmodule:drivers/usb/chipidea/**
p44
aVmodule:drivers/usb/gadget/**
p45
aVmodule:drivers/usb/host/**
p46
aVmodule:drivers/usb/musb/**
p47
aVmodule:fs/nfs/**
p48
aVmodule:net/ceph/libceph
p49
aVmodule:net/l2tp/**
p50
aVmodule:net/openvswitch/**
p51
aVmodule:net/rxrpc/rxrpc
p52
aVmodule:net/sctp/**
p53
aVmodule:sound/core/seq/**
p54
aVmodule:sound/firewire/snd-firewire-lib
p55
aVmodule:sound/pci/hda/*
p56
aVbtree_*
p57
aVvisitor*
p58
aVcan_rx_register
p59
aVip6_xmit
p60
aVmodule:net/dccp/dccp
p61
aVmodule:net/rds/rds
p62
aVdevfreq_*
p63
aVdevm_devfreq_*
p64
aVupdate_devfreq
p65
aVmodule:drivers/infiniband/**
p66
aVacpi_ec_add_query_handler
p67
aVacpi_ec_remove_query_handler
p68
aVfirst_ec
p69
aVdebugfs_create_automount
p70
aVmodule:drivers/iio/imu/inv_mpu6050/*
p71
aVdrm_crtc_accurate_vblank_count
p72
aVacpi_nfit_desc_init
p73
aVacpi_nfit_init
p74
aVloop_register_transfer
p75
aVxen_xlate_*
p76
aVnf_nat_masquerade_ipv4_register_notifier
p77
aVnf_nat_masquerade_ipv6_register_notifier
p78
aVdfltcc_*
p79
aVmodule:drivers/scsi/hisi_sas/*
p80
aV__gfn_*
p81
aV__kvmhv_*
p82
aV__kvm_*
p83
aV__xive_vm_h_*
p84
aVgfn_*
p85
aVh_ipi_redirect
p86
aVhalt_poll_ns*
p87
aVkvm_*
p88
aVkvmhv_*
p89
aVkvmppc_*
p90
aVmark_page_dirty
p91
aVvcpu_*
p92
aVmodule:arch/powerpc/kvm/*
p93
aVmodule:arch/s390/kvm/*
p94
aVmodule:arch/x86/kvm/*
p95
aVuv_info
p96
aVxhci_init_driver
p97
ass(Vbase
p98
tp99
(dp100
Varches
p101
(lp102
Valpha
p103
aVamd64
p104
aVarm64
p105
aVarm64ilp32
p106
aVarmel
p107
aVarmhf
p108
aVhppa
p109
aVi386
p110
aVia64
p111
aVm68k
p112
aVmips
p113
aVmips64
p114
aVmips64el
p115
aVmips64r6
p116
aVmips64r6el
p117
aVmipsel
p118
aVmipsn32
p119
aVmipsn32el
p120
aVmipsn32r6
p121
aVmipsn32r6el
p122
aVmipsr6
p123
aVmipsr6el
p124
aVpowerpc
p125
aVppc64
p126
aVppc64el
p127
aVriscv64
p128
aVs390
p129
aVs390x
p130
aVsh3
p131
aVsh4
p132
aVsparc
p133
aVsparc64
p134
aVx32
p135
asVcompiler
p136
Vgcc-12
p137
sVfeaturesets
p138
(lp139
Vnone
p140
aVrt
p141
ass(Vbuild
p142
tp143
(dp144
Vsigned-code
p145
I00
sVtrusted-certs
p146
Vdebian/certs/debian-uefi-certs.pem
p147
ss(Vbase
p148
NVrt
p149
tp150
(dp151
Venabled
p152
I01
ss(Vdescription
p153
tp154
(dp155
Vpart-long-up
p156
VThis kernel is not suitable for SMP (multi-processor, multi-core or hyper-threaded) systems.
p157
ss(Vimage
p158
tp159
(dp160
Vinitramfs-generators
p161
(lp162
Vinitramfs-tools
p163
aVinitramfs-fallback
p164
asVbreaks
p165
(lp166
Vfwupdate (<< 12-7)
p167
aVwireless-regdb (<< 2019.06.03-1~)
p168
asVrecommends
p169
(lp170
Vapparmor
p171
ass(Vrelations
p172
tp173
(dp174
Vgcc-12
p175
Vgcc-12 <!stage1 !cross !pkg.linux.nokernel>, gcc-12-@gnu-type-package@ <!stage1 cross !pkg.linux.nokernel>
p176
sVinitramfs-fallback
p177
Vlinux-initramfs-tool
p178
sVinitramfs-tools
p179
Vinitramfs-tools (>= 0.120+deb8u2)
p180
ss(Vbase
p181
Valpha
p182
tp183
(dp184
Vdefault-flavour
p185
Valpha-smp
p186
sVkernel-arch
p187
Valpha
p188
sVfeaturesets
p189
(lp190
Vnone
p191
ass(Vbuild
p192
g182
tp193
(dp194
Vimage-file
p195
Varch/alpha/boot/vmlinux.gz
p196
ss(Vimage
p197
g182
tp198
(dp199
Vsuggests
p200
(lp201
Vaboot
p202
aVfdutils
p203
asVinstall-stem
p204
Vvmlinuz
p205
ss(Vdescription
p206
g182
NValpha-generic
p207
tp208
(dp209
Vhardware
p210
VAlpha
p211
sVhardware-long
p212
VDEC Alpha systems with extended kernel start address (Wildfire, Titan, Marvel)
p213
ss(Vdescription
p214
g182
NValpha-smp
p215
tp216
(dp217
Vhardware
p218
VAlpha SMP
p219
sVhardware-long
p220
VDEC Alpha SMP systems with extended kernel start address (Wildfire, Titan, Marvel)
p221
ss(Vbase
p222
g182
g191
tp223
(dp224
Vflavours
p225
(lp226
Valpha-generic
p227
aValpha-smp
p228
asVimplicit-flavour
p229
I01
ss(Vbase
p230
Vamd64
p231
tp232
(dp233
Vfeaturesets
p234
(lp235
Vnone
p236
aVrt
p237
asVkernel-arch
p238
Vx86
p239
ss(Vbuild
p240
g231
tp241
(dp242
Vimage-file
p243
Varch/x86/boot/bzImage
p244
sVsigned-code
p245
I00
sVvdso
p246
I01
ss(Vimage
p247
g231
tp248
(dp249
Vbootloaders
p250
(lp251
Vgrub-pc
p252
aVgrub-efi-amd64
p253
aVextlinux
p254
asVinstall-stem
p255
Vvmlinuz
p256
ss(Vrelations
p257
g231
tp258
(dp259
Vheaders%gcc-12
p260
Vlinux-compiler-gcc-12-x86
p261
ss(Vdescription
p262
g231
NVamd64
p263
tp264
(dp265
Vhardware
p266
V64-bit PCs
p267
sVhardware-long
p268
VPCs with AMD64, Intel 64 or VIA Nano processors
p269
ss(Vdescription
p270
g231
NVcloud-amd64
p271
tp272
(dp273
Vhardware
p274
Vx86-64 cloud
p275
sVhardware-long
p276
Vcloud platforms including Amazon EC2, Microsoft Azure, and Google Compute Engine
p277
ss(Vbase
p278
g231
Vnone
p279
tp280
(dp281
Vflavours
p282
(lp283
Vamd64
p284
aVcloud-amd64
p285
asVdefault-flavour
p286
Vamd64
p287
sVquick-flavour
p288
Vcloud-amd64
p289
ss(Vimage
p290
g231
g279
Vcloud-amd64
p291
tp292
(dp293
Vconfigs
p294
(lp295
Vconfig.cloud
p296
aVamd64/config.cloud-amd64
p297
ass(Vbase
p298
g231
Vrt
p299
tp300
(dp301
Vflavours
p302
(lp303
Vamd64
p304
ass(Vbase
p305
Varm64
p306
tp307
(dp308
Vcross-compile-compat
p309
Varm-linux-gnueabihf-
p310
sVkernel-arch
p311
Varm64
p312
sVfeaturesets
p313
(lp314
Vnone
p315
aVrt
p316
ass(Vbuild
p317
g306
tp318
(dp319
Vimage-file
p320
Varch/arm64/boot/Image
p321
sVsigned-code
p322
I00
sVvdso
p323
I01
ss(Vimage
p324
g306
tp325
(dp326
Vinstall-stem
p327
Vvmlinuz
p328
ss(Vdescription
p329
g306
NVarm64
p330
tp331
(dp332
Vhardware
p333
V64-bit ARMv8 machines
p334
ss(Vdescription
p335
g306
NVcloud-arm64
p336
tp337
(dp338
Vhardware
p339
Varm64 cloud
p340
sVhardware-long
p341
Vcloud platforms supporting arm64 virtual machines
p342
ss(Vimage
p343
g306
NVarm64
p344
tp345
(dp346
s(Vrelations
p347
g306
tp348
(dp349
Vgcc-12
p350
Vgcc-12 <!stage1 !cross !pkg.linux.nokernel>, gcc-12-aarch64-linux-gnu <!stage1 cross !pkg.linux.nokernel>, gcc-arm-linux-gnueabihf <!stage1 !pkg.linux.nokernel>
p351
sVheaders%gcc-12
p352
Vgcc-12
p353
ss(Vbase
p354
g306
Vnone
p355
tp356
(dp357
Vflavours
p358
(lp359
Varm64
p360
aVcloud-arm64
p361
asVdefault-flavour
p362
Varm64
p363
sVquick-flavour
p364
Vcloud-arm64
p365
ss(Vimage
p366
g306
g355
Vcloud-arm64
p367
tp368
(dp369
Vconfigs
p370
(lp371
Vconfig.cloud
p372
aVarm64/config.cloud-arm64
p373
ass(Vbase
p374
g306
Vrt
p375
tp376
(dp377
Vflavours
p378
(lp379
Varm64
p380
ass(Vbase
p381
Varm64ilp32
p382
tp383
(dp384
Vkernel-arch
p385
Varm64
p386
sVfeaturesets
p387
(lp388
ss(Vbase
p389
Varmel
p390
tp391
(dp392
Vkernel-arch
p393
Varm
p394
sg189
(lp395
g191
ass(Vbuild
p396
g390
tp397
(dp398
Vimage-file
p399
Varch/arm/boot/zImage
p400
sVuncompressed-image-file
p401
Varch/arm/boot/Image
p402
sVsigned-code
p403
I00
ss(Vimage
p404
g390
tp405
(dp406
Vinstall-stem
p407
Vvmlinuz
p408
ss(Vrelations
p409
g390
tp410
(dp411
Vheaders%gcc-12
p412
Vlinux-compiler-gcc-12-arm
p413
ss(Vdescription
p414
g390
NVmarvell
p415
tp416
(dp417
Vhardware
p418
VMarvell Kirkwood/Orion
p419
sVhardware-long
p420
VMarvell Kirkwood and Orion based systems (https://wiki.debian.org/ArmEabiPort#Supported_hardware)
p421
ss(Vdescription
p422
g390
NVrpi
p423
tp424
(dp425
Vhardware
p426
VRaspberry Pi Zero, Zero W and 1
p427
sVhardware-long
p428
VRaspberry Pi Zero, Zero W and 1 based systems
p429
ss(Vimage
p430
g390
NVmarvell
p431
tp432
(dp433
Vrecommends
p434
(lp435
Vu-boot-tools
p436
asVcheck-size
p437
I2729712
sVcheck-size-with-dtb
p438
I01
ss(g222
g390
g191
tp439
(dp440
g225
(lp441
Vmarvell
p442
aVrpi
p443
asg229
I01
ss(Vbase
p444
Varmhf
p445
tp446
(dp447
Vfeaturesets
p448
(lp449
Vnone
p450
aVrt
p451
asVkernel-arch
p452
Varm
p453
ss(Vbuild
p454
g445
tp455
(dp456
Vimage-file
p457
Varch/arm/boot/zImage
p458
sVvdso
p459
I01
sVsigned-code
p460
I00
ss(Vimage
p461
g445
tp462
(dp463
Vinstall-stem
p464
Vvmlinuz
p465
ss(Vrelations
p466
g445
tp467
(dp468
Vheaders%gcc-12
p469
Vlinux-compiler-gcc-12-arm
p470
ss(Vdescription
p471
g445
NVarmmp
p472
tp473
(dp474
Vhardware
p475
VARMv7 multiplatform compatible SoCs
p476
sVhardware-long
p477
VARMv7 multiplatform kernel. See https://wiki.debian.org/DebianKernel/ARMMP for details of supported platforms
p478
ss(Vdescription
p479
g445
NVarmmp-lpae
p480
tp481
(dp482
Vhardware
p483
VARMv7 multiplatform compatible SoCs supporting LPAE
p484
sVhardware-long
p485
VARMv7 multiplatform kernel supporting LPAE. See https://wiki.debian.org/DebianKernel/ARMMP for details of supported platforms.
p486
ss(Vbase
p487
g445
Vnone
p488
tp489
(dp490
Vflavours
p491
(lp492
Varmmp
p493
aVarmmp-lpae
p494
asVdefault-flavour
p495
Varmmp
p496
ss(Vbase
p497
g445
Vrt
p498
tp499
(dp500
Vflavours
p501
(lp502
Varmmp
p503
ass(Vbase
p504
Vhppa
p505
tp506
(dp507
Vdefault-flavour
p508
Vparisc
p509
sVkernel-arch
p510
Vparisc
p511
sg189
(lp512
g191
ass(Vbuild
p513
g505
tp514
(dp515
Vimage-file
p516
Varch/parisc/boot/bzImage
p517
ss(Vimage
p518
g505
tp519
(dp520
Vsuggests
p521
(lp522
Vpalo
p523
asVinstall-stem
p524
Vvmlinuz
p525
ss(Vdescription
p526
g505
NVparisc
p527
tp528
(dp529
Vhardware
p530
V32-bit PA-RISC
p531
sVhardware-long
p532
VHP PA-RISC 32-bit systems with max 4 GB RAM
p533
ss(Vbase
p534
g505
NVparisc64
p535
tp536
(dp537
Vcflags
p538
V-fno-cse-follow-jumps
p539
sVoverride-host-type
p540
Vhppa64-linux-gnu
p541
ss(Vdescription
p542
g505
NVparisc64
p543
tp544
(dp545
Vhardware
p546
V64-bit PA-RISC
p547
sVhardware-long
p548
VHP PA-RISC 64-bit systems with support for more than 4 GB RAM
p549
ss(Vrelations
p550
g505
tp551
(dp552
Vgcc-12
p553
Vgcc-12 <!stage1 !cross !pkg.linux.nokernel>, gcc-12-hppa-linux-gnu <!stage1 cross !pkg.linux.nokernel>, binutils-hppa64-linux-gnu <!stage1 !pkg.linux.nokernel>, gcc-12-hppa64-linux-gnu <!stage1 !pkg.linux.nokernel>
p554
ss(g222
g505
g191
tp555
(dp556
g225
(lp557
Vparisc
p558
aVparisc64
p559
asg229
I01
ss(Vbase
p560
Vi386
p561
tp562
(dp563
Vfeaturesets
p564
(lp565
Vnone
p566
aVrt
p567
asVkernel-arch
p568
Vx86
p569
ss(Vbuild
p570
g561
tp571
(dp572
Vimage-file
p573
Varch/x86/boot/bzImage
p574
sVsigned-code
p575
I00
sVvdso
p576
I01
ss(Vdescription
p577
g561
tp578
(dp579
Vpart-long-pae
p580
VThis kernel requires PAE (Physical Address Extension). This feature is supported by the Intel Pentium Pro/II/III/4/4M/D, Xeon, Core and Atom; AMD Geode NX, Athlon (K7), Duron, Opteron, Sempron, Turion or Phenom; Transmeta Efficeon; VIA C7; and some other processors.
p581
ss(Vimage
p582
g561
tp583
(dp584
Vbootloaders
p585
(lp586
Vgrub-pc
p587
aVgrub-efi-ia32
p588
aVextlinux
p589
asVinstall-stem
p590
Vvmlinuz
p591
ss(Vrelations
p592
g561
tp593
(dp594
Vheaders%gcc-12
p595
Vlinux-compiler-gcc-12-x86
p596
ss(Vdescription
p597
g561
NV686
p598
tp599
(dp600
Vhardware
p601
Volder PCs
p602
sVhardware-long
p603
VPCs with one or more processors not supporting PAE
p604
ss(Vdescription
p605
g561
NV686-pae
p606
tp607
(dp608
Vhardware
p609
Vmodern PCs
p610
sVhardware-long
p611
VPCs with one or more processors supporting PAE
p612
sVparts
p613
(lp614
Vpae
p615
ass(Vbase
p616
g561
Vnone
p617
tp618
(dp619
Vflavours
p620
(lp621
V686
p622
aV686-pae
p623
asVdefault-flavour
p624
V686-pae
p625
ss(Vbase
p626
g561
Vrt
p627
tp628
(dp629
Vflavours
p630
(lp631
V686-pae
p632
ass(Vbase
p633
Via64
p634
tp635
(dp636
Vdefault-flavour
p637
Vitanium
p638
sVkernel-arch
p639
Via64
p640
sg189
(lp641
g191
ass(Vbuild
p642
g634
tp643
(dp644
Vimage-file
p645
Vvmlinux.gz
p646
ss(Vimage
p647
g634
tp648
(dp649
Vbootloaders
p650
(lp651
Vgrub-efi-ia64
p652
asVinstall-stem
p653
Vvmlinuz
p654
ss(Vdescription
p655
g634
NVitanium
p656
tp657
(dp658
Vhardware
p659
VItanium (Merced)
p660
sVhardware-long
p661
Vsystems with original Itanium (Merced) processors
p662
ss(Vdescription
p663
g634
NVmckinley
p664
tp665
(dp666
Vhardware
p667
VItanium 2+
p668
sVhardware-long
p669
Vsystems with Itanium 2 or 9300/9500/9700-series processors
p670
ss(g222
g634
g191
tp671
(dp672
g225
(lp673
Vitanium
p674
aVmckinley
p675
asg229
I01
ss(Vbase
p676
Vm68k
p677
tp678
(dp679
Vcflags
p680
V-ffreestanding
p681
sVdefault-flavour
p682
Vm68k
p683
sVkernel-arch
p684
Vm68k
p685
sg189
(lp686
g191
ass(Vbuild
p687
g677
tp688
(dp689
Vimage-file
p690
Vvmlinux
p691
ss(Vimage
p692
g677
tp693
(dp694
Vsuggests
p695
(lp696
Vvmelilo
p697
aVfdutils
p698
asVinstall-stem
p699
Vvmlinux
p700
ss(Vdescription
p701
g677
NVm68k
p702
tp703
(dp704
Vhardware
p705
VMotorola MC68020+ family
p706
ss(g222
g677
g191
tp707
(dp708
g225
(lp709
Vm68k
p710
asg229
I01
ss(Vbase
p711
Vmips
p712
tp713
(dp714
Vkernel-arch
p715
Vmips
p716
sg189
(lp717
g191
ass(Vbuild
p718
g712
tp719
(dp720
Vimage-file
p721
Vvmlinuz
p722
ss(Vimage
p723
g712
tp724
(dp725
Vinstall-stem
p726
Vvmlinuz
p727
ss(Vdescription
p728
g712
NV4kc-malta
p729
tp730
(dp731
Vhardware
p732
VMIPS Malta
p733
sVhardware-long
p734
VMIPS Malta boards
p735
ss(Vimage
p736
g712
NV4kc-malta
p737
tp738
(dp739
Vconfigs
p740
(lp741
Vkernelarch-mips/config.malta
p742
aVkernelarch-mips/config.mips32r2
p743
ass(Vdescription
p744
g712
NVmips32r2eb
p745
tp746
(dp747
Vhardware
p748
VMIPS Generic (mips32r2eb)
p749
sVhardware-long
p750
VMIPS Generic platform (mips32r2eb)
p751
ss(Vimage
p752
g712
NVmips32r2eb
p753
tp754
(dp755
Vconfigs
p756
(lp757
Vkernelarch-mips/config.boston
p758
aVkernelarch-mips/config.mips32r2
p759
ass(Vdescription
p760
g712
NVocteon
p761
tp762
(dp763
Vhardware
p764
VOcteon
p765
sVhardware-long
p766
VCavium Networks Octeon
p767
ss(Vbuild
p768
g712
NVocteon
p769
tp770
(dp771
Vimage-file
p772
Vvmlinux
p773
ss(Vimage
p774
g712
NVocteon
p775
tp776
(dp777
Vinstall-stem
p778
Vvmlinux
p779
sVconfigs
p780
(lp781
Vkernelarch-mips/config.octeon
p782
ass(g222
g712
g191
tp783
(dp784
g225
(lp785
V4kc-malta
p786
aVmips32r2eb
p787
aVocteon
p788
asg229
I01
ss(Vbase
p789
Vmips64
p790
tp791
(dp792
Vkernel-arch
p793
Vmips
p794
sg189
(lp795
g191
ass(Vbuild
p796
g790
tp797
(dp798
Vimage-file
p799
Vvmlinuz
p800
ss(Vimage
p801
g790
tp802
(dp803
Vinstall-stem
p804
Vvmlinuz
p805
ss(Vdescription
p806
g790
NV5kc-malta
p807
tp808
(dp809
Vhardware
p810
VMIPS Malta
p811
sVhardware-long
p812
VMIPS Malta boards
p813
ss(Vimage
p814
g790
NV5kc-malta
p815
tp816
(dp817
Vconfigs
p818
(lp819
Vkernelarch-mips/config.malta
p820
aVkernelarch-mips/config.mips64r2
p821
ass(Vdescription
p822
g790
NVmips64r2eb
p823
tp824
(dp825
Vhardware
p826
VMIPS Generic (mips64r2eb)
p827
sVhardware-long
p828
VMIPS Generic platform (mips64r2eb)
p829
ss(Vimage
p830
g790
NVmips64r2eb
p831
tp832
(dp833
Vconfigs
p834
(lp835
Vkernelarch-mips/config.boston
p836
aVkernelarch-mips/config.mips64r2
p837
ass(Vdescription
p838
g790
NVocteon
p839
tp840
(dp841
Vhardware
p842
VOcteon
p843
sVhardware-long
p844
VCavium Networks Octeon
p845
ss(Vbuild
p846
g790
NVocteon
p847
tp848
(dp849
Vimage-file
p850
Vvmlinux
p851
ss(Vimage
p852
g790
NVocteon
p853
tp854
(dp855
Vinstall-stem
p856
Vvmlinux
p857
sVconfigs
p858
(lp859
Vkernelarch-mips/config.octeon
p860
ass(g222
g790
g191
tp861
(dp862
g225
(lp863
V5kc-malta
p864
aVmips64r2eb
p865
aVocteon
p866
asg229
I01
ss(Vbase
p867
Vmips64el
p868
tp869
(dp870
Vkernel-arch
p871
Vmips
p872
sg189
(lp873
g191
ass(Vbuild
p874
g868
tp875
(dp876
Vimage-file
p877
Vvmlinuz
p878
ss(Vimage
p879
g868
tp880
(dp881
Vinstall-stem
p882
Vvmlinuz
p883
ss(Vdescription
p884
g868
NV5kc-malta
p885
tp886
(dp887
Vhardware
p888
VMIPS Malta
p889
sVhardware-long
p890
VMIPS Malta boards
p891
ss(Vimage
p892
g868
NV5kc-malta
p893
tp894
(dp895
Vconfigs
p896
(lp897
Vkernelarch-mips/config.malta
p898
aVkernelarch-mips/config.mips64r2
p899
ass(Vdescription
p900
g868
NVmips64r2el
p901
tp902
(dp903
Vhardware
p904
VMIPS Generic (mips64r2el)
p905
sVhardware-long
p906
VMIPS Generic platform (mips64r2el)
p907
ss(Vimage
p908
g868
NVmips64r2el
p909
tp910
(dp911
Vconfigs
p912
(lp913
Vkernelarch-mips/config.boston
p914
aVkernelarch-mips/config.mips64r2
p915
ass(Vdescription
p916
g868
NVloongson-3
p917
tp918
(dp919
Vhardware
p920
VLoongson 3A/3B
p921
sVhardware-long
p922
VLoongson 3A or 3B based systems (e.g. from Loongson or Lemote)
p923
ss(Vimage
p924
g868
NVloongson-3
p925
tp926
(dp927
Vrecommends
p928
(lp929
Vpmon-update
p930
asVconfigs
p931
(lp932
Vkernelarch-mips/config.loongson-3
p933
ass(Vdescription
p934
g868
NVocteon
p935
tp936
(dp937
Vhardware
p938
VOcteon
p939
sVhardware-long
p940
VCavium Networks Octeon
p941
ss(Vbuild
p942
g868
NVocteon
p943
tp944
(dp945
Vimage-file
p946
Vvmlinux
p947
ss(Vimage
p948
g868
NVocteon
p949
tp950
(dp951
Vinstall-stem
p952
Vvmlinux
p953
sVconfigs
p954
(lp955
Vkernelarch-mips/config.octeon
p956
ass(g222
g868
g191
tp957
(dp958
g225
(lp959
V5kc-malta
p960
aVmips64r2el
p961
aVloongson-3
p962
aVocteon
p963
asg229
I01
ss(Vbase
p964
Vmips64r6
p965
tp966
(dp967
Vkernel-arch
p968
Vmips
p969
sg189
(lp970
g191
ass(Vbuild
p971
g965
tp972
(dp973
Vimage-file
p974
Vvmlinuz
p975
ss(Vimage
p976
g965
tp977
(dp978
Vinstall-stem
p979
Vvmlinuz
p980
ss(Vdescription
p981
g965
NVmips64r6eb
p982
tp983
(dp984
Vhardware
p985
VMIPS Generic (mips64r6eb)
p986
sVhardware-long
p987
VMIPS Generic platform (mips64r6eb)
p988
ss(Vimage
p989
g965
NVmips64r6eb
p990
tp991
(dp992
Vconfigs
p993
(lp994
Vkernelarch-mips/config.boston
p995
aVkernelarch-mips/config.mips64r6
p996
ass(g222
g965
g191
tp997
(dp998
g225
(lp999
Vmips64r6eb
p1000
asg229
I01
ss(Vbase
p1001
Vmips64r6el
p1002
tp1003
(dp1004
Vkernel-arch
p1005
Vmips
p1006
sg189
(lp1007
g191
ass(Vbuild
p1008
g1002
tp1009
(dp1010
Vimage-file
p1011
Vvmlinuz
p1012
ss(Vimage
p1013
g1002
tp1014
(dp1015
Vinstall-stem
p1016
Vvmlinuz
p1017
ss(Vdescription
p1018
g1002
NVmips64r6el
p1019
tp1020
(dp1021
Vhardware
p1022
VMIPS Generic (mips64r6el)
p1023
sVhardware-long
p1024
VMIPS Generic platform (mips64r6el)
p1025
ss(Vimage
p1026
g1002
NVmips64r6el
p1027
tp1028
(dp1029
Vconfigs
p1030
(lp1031
Vkernelarch-mips/config.boston
p1032
aVkernelarch-mips/config.mips64r6
p1033
ass(g222
g1002
g191
tp1034
(dp1035
g225
(lp1036
Vmips64r6el
p1037
asg229
I01
ss(Vbase
p1038
Vmipsel
p1039
tp1040
(dp1041
Vkernel-arch
p1042
Vmips
p1043
sg189
(lp1044
g191
ass(Vbuild
p1045
g1039
tp1046
(dp1047
Vimage-file
p1048
Vvmlinuz
p1049
ss(Vimage
p1050
g1039
tp1051
(dp1052
Vinstall-stem
p1053
Vvmlinuz
p1054
ss(Vdescription
p1055
g1039
NV4kc-malta
p1056
tp1057
(dp1058
Vhardware
p1059
VMIPS Malta
p1060
sVhardware-long
p1061
VMIPS Malta boards
p1062
ss(Vimage
p1063
g1039
NV4kc-malta
p1064
tp1065
(dp1066
Vconfigs
p1067
(lp1068
Vkernelarch-mips/config.malta
p1069
aVkernelarch-mips/config.mips32r2
p1070
ass(Vdescription
p1071
g1039
NVmips32r2el
p1072
tp1073
(dp1074
Vhardware
p1075
VMIPS Generic (mips32r2el)
p1076
sVhardware-long
p1077
VMIPS Generic platform (mips32r2el)
p1078
ss(Vimage
p1079
g1039
NVmips32r2el
p1080
tp1081
(dp1082
Vconfigs
p1083
(lp1084
Vkernelarch-mips/config.boston
p1085
aVkernelarch-mips/config.mips32r2
p1086
ass(Vdescription
p1087
g1039
NVloongson-3
p1088
tp1089
(dp1090
Vhardware
p1091
VLoongson 3A/3B
p1092
sVhardware-long
p1093
VLoongson 3A or 3B based systems (e.g. from Loongson or Lemote)
p1094
ss(Vimage
p1095
g1039
NVloongson-3
p1096
tp1097
(dp1098
Vrecommends
p1099
(lp1100
Vpmon-update
p1101
asVconfigs
p1102
(lp1103
Vkernelarch-mips/config.loongson-3
p1104
ass(Vdescription
p1105
g1039
NVocteon
p1106
tp1107
(dp1108
Vhardware
p1109
VOcteon
p1110
sVhardware-long
p1111
VCavium Networks Octeon
p1112
ss(Vbuild
p1113
g1039
NVocteon
p1114
tp1115
(dp1116
Vimage-file
p1117
Vvmlinux
p1118
ss(Vimage
p1119
g1039
NVocteon
p1120
tp1121
(dp1122
Vinstall-stem
p1123
Vvmlinux
p1124
sVconfigs
p1125
(lp1126
Vkernelarch-mips/config.octeon
p1127
ass(g222
g1039
g191
tp1128
(dp1129
g225
(lp1130
V4kc-malta
p1131
aVmips32r2el
p1132
aVloongson-3
p1133
aVocteon
p1134
asg229
I01
ss(Vbase
p1135
Vmipsn32
p1136
tp1137
(dp1138
Vkernel-arch
p1139
Vmips
p1140
sVfeaturesets
p1141
(lp1142
ss(Vbase
p1143
Vmipsn32el
p1144
tp1145
(dp1146
Vkernel-arch
p1147
Vmips
p1148
sVfeaturesets
p1149
(lp1150
ss(Vbase
p1151
Vmipsn32r6
p1152
tp1153
(dp1154
Vkernel-arch
p1155
Vmips
p1156
sVfeaturesets
p1157
(lp1158
ss(Vbase
p1159
Vmipsn32r6el
p1160
tp1161
(dp1162
Vkernel-arch
p1163
Vmips
p1164
sVfeaturesets
p1165
(lp1166
ss(Vbase
p1167
Vmipsr6
p1168
tp1169
(dp1170
Vkernel-arch
p1171
Vmips
p1172
sg189
(lp1173
g191
ass(Vbuild
p1174
g1168
tp1175
(dp1176
Vimage-file
p1177
Vvmlinuz
p1178
ss(Vimage
p1179
g1168
tp1180
(dp1181
Vinstall-stem
p1182
Vvmlinuz
p1183
ss(Vdescription
p1184
g1168
NVmips32r6eb
p1185
tp1186
(dp1187
Vhardware
p1188
VMIPS Generic (mips32r6eb)
p1189
sVhardware-long
p1190
VMIPS Generic platform (mips32r6eb)
p1191
ss(Vimage
p1192
g1168
NVmips32r6eb
p1193
tp1194
(dp1195
Vconfigs
p1196
(lp1197
Vkernelarch-mips/config.boston
p1198
aVkernelarch-mips/config.mips32r6
p1199
ass(g222
g1168
g191
tp1200
(dp1201
g225
(lp1202
Vmips32r6eb
p1203
asg229
I01
ss(Vbase
p1204
Vmipsr6el
p1205
tp1206
(dp1207
Vkernel-arch
p1208
Vmips
p1209
sg189
(lp1210
g191
ass(Vbuild
p1211
g1205
tp1212
(dp1213
Vimage-file
p1214
Vvmlinuz
p1215
ss(Vimage
p1216
g1205
tp1217
(dp1218
Vinstall-stem
p1219
Vvmlinuz
p1220
ss(Vdescription
p1221
g1205
NVmips32r6el
p1222
tp1223
(dp1224
Vhardware
p1225
VMIPS Generic (mips32r6el)
p1226
sVhardware-long
p1227
VMIPS Generic platform (mips32r6el)
p1228
ss(Vimage
p1229
g1205
NVmips32r6el
p1230
tp1231
(dp1232
Vconfigs
p1233
(lp1234
Vkernelarch-mips/config.boston
p1235
aVkernelarch-mips/config.mips32r6
p1236
ass(g222
g1205
g191
tp1237
(dp1238
g225
(lp1239
Vmips32r6el
p1240
asg229
I01
ss(Vbase
p1241
Vpowerpc
p1242
tp1243
(dp1244
Vkernel-arch
p1245
Vpowerpc
p1246
sg189
(lp1247
g191
ass(Vbuild
p1248
g1242
tp1249
(dp1250
Vimage-file
p1251
Vvmlinux
p1252
ss(Vimage
p1253
g1242
tp1254
(dp1255
Vconfigs
p1256
(lp1257
sVbootloaders
p1258
(lp1259
Vgrub-ieee1275
p1260
asVsuggests
p1261
(lp1262
Vmkvmlinuz
p1263
asVinstall-stem
p1264
Vvmlinux
p1265
ss(Vdescription
p1266
g1242
NVpowerpc
p1267
tp1268
(dp1269
Vhardware
p1270
Vuniprocessor 32-bit PowerPC
p1271
ss(Vdescription
p1272
g1242
NVpowerpc-smp
p1273
tp1274
(dp1275
Vhardware
p1276
Vmultiprocessor 32-bit PowerPC
p1277
ss(Vimage
p1278
g1242
NVpowerpc-smp
p1279
tp1280
(dp1281
Vconfigs
p1282
(lp1283
Vpowerpc/config.powerpc
p1284
aVpowerpc/config.powerpc-smp
p1285
ass(Vdescription
p1286
g1242
NVpowerpc64
p1287
tp1288
(dp1289
Vhardware
p1290
V64-bit PowerPC
p1291
ss(Vimage
p1292
g1242
NVpowerpc64
p1293
tp1294
(dp1295
Vconfigs
p1296
(lp1297
Vkernelarch-powerpc/config-arch-64
p1298
aVkernelarch-powerpc/config-arch-64-be
p1299
ass(g222
g1242
g191
tp1300
(dp1301
g225
(lp1302
Vpowerpc
p1303
aVpowerpc-smp
p1304
aVpowerpc64
p1305
asg229
I01
ss(Vbase
p1306
Vppc64
p1307
tp1308
(dp1309
Vdefault-flavour
p1310
Vpowerpc64
p1311
sVkernel-arch
p1312
Vpowerpc
p1313
sg189
(lp1314
g191
ass(Vbuild
p1315
g1307
tp1316
(dp1317
Vimage-file
p1318
Vvmlinux
p1319
ss(Vimage
p1320
g1307
tp1321
(dp1322
Vconfigs
p1323
(lp1324
sVbootloaders
p1325
(lp1326
Vgrub-ieee1275
p1327
asVsuggests
p1328
(lp1329
Vmkvmlinuz
p1330
asVinstall-stem
p1331
Vvmlinux
p1332
ss(Vdescription
p1333
g1307
NVpowerpc64
p1334
tp1335
(dp1336
Vhardware
p1337
V64-bit PowerPC
p1338
ss(Vimage
p1339
g1307
NVpowerpc64
p1340
tp1341
(dp1342
Vconfigs
p1343
(lp1344
Vkernelarch-powerpc/config-arch-64
p1345
aVkernelarch-powerpc/config-arch-64-be
p1346
ass(g222
g1307
g191
tp1347
(dp1348
g225
(lp1349
Vpowerpc64
p1350
asg229
I01
ss(Vbase
p1351
Vppc64el
p1352
tp1353
(dp1354
Vdefault-flavour
p1355
Vpowerpc64le
p1356
sVkernel-arch
p1357
Vpowerpc
p1358
sg189
(lp1359
g191
ass(Vbuild
p1360
g1352
tp1361
(dp1362
Vimage-file
p1363
Vvmlinux
p1364
ss(Vimage
p1365
g1352
tp1366
(dp1367
Vconfigs
p1368
(lp1369
sVbootloaders
p1370
(lp1371
Vgrub-ieee1275
p1372
asVsuggests
p1373
(lp1374
Vmkvmlinuz
p1375
asVinstall-stem
p1376
Vvmlinux
p1377
ss(Vdescription
p1378
g1352
NVpowerpc64le
p1379
tp1380
(dp1381
Vhardware
p1382
VLittle-endian 64-bit PowerPC
p1383
ss(Vimage
p1384
g1352
NVpowerpc64le
p1385
tp1386
(dp1387
Vconfigs
p1388
(lp1389
Vkernelarch-powerpc/config-arch-64
p1390
aVkernelarch-powerpc/config-arch-64-le
p1391
ass(g222
g1352
g191
tp1392
(dp1393
g225
(lp1394
Vpowerpc64le
p1395
asg229
I01
ss(Vbase
p1396
Vriscv64
p1397
tp1398
(dp1399
Vkernel-arch
p1400
Vriscv
p1401
sVfeaturesets
p1402
(lp1403
Vnone
p1404
ass(Vbuild
p1405
g1397
tp1406
(dp1407
Vimage-file
p1408
Varch/riscv/boot/Image
p1409
sVvdso
p1410
I01
ss(Vimage
p1411
g1397
tp1412
(dp1413
Vinstall-stem
p1414
Vvmlinux
p1415
ss(Vdescription
p1416
g1397
NVriscv64
p1417
tp1418
(dp1419
Vhardware
p1420
V64-bit RISC-V platforms
p1421
sVhardware-long
p1422
V64-bit RISC-V platforms
p1423
ss(Vbase
p1424
g1397
Vnone
p1425
tp1426
(dp1427
Vflavours
p1428
(lp1429
Vriscv64
p1430
asVdefault-flavour
p1431
Vriscv64
p1432
ss(Vbase
p1433
Vs390
p1434
tp1435
(dp1436
Vkernel-arch
p1437
Vs390
p1438
sVfeaturesets
p1439
(lp1440
ss(Vbase
p1441
Vs390x
p1442
tp1443
(dp1444
Vdefault-flavour
p1445
Vs390x
p1446
sVkernel-arch
p1447
Vs390
p1448
sg189
(lp1449
g191
ass(Vbuild
p1450
g1442
tp1451
(dp1452
Vimage-file
p1453
Varch/s390/boot/bzImage
p1454
sVvdso
p1455
I01
ss(Vimage
p1456
g1442
tp1457
(dp1458
Vbootloaders
p1459
(lp1460
Vs390-tools
p1461
asVinstall-stem
p1462
Vvmlinuz
p1463
ss(Vrelations
p1464
g1442
tp1465
(dp1466
Vheaders%gcc-12
p1467
Vlinux-compiler-gcc-12-s390
p1468
ss(Vdescription
p1469
g1442
NVs390x
p1470
tp1471
(dp1472
Vhardware
p1473
VIBM zSeries
p1474
ss(g222
g1442
g191
tp1475
(dp1476
g225
(lp1477
Vs390x
p1478
asg229
I01
ss(Vbase
p1479
Vsh3
p1480
tp1481
(dp1482
Vkernel-arch
p1483
Vsh
p1484
sVfeaturesets
p1485
(lp1486
ss(Vbase
p1487
Vsh4
p1488
tp1489
(dp1490
Vkernel-arch
p1491
Vsh
p1492
sg189
(lp1493
g191
ass(Vbuild
p1494
g1488
tp1495
(dp1496
Vimage-file
p1497
Varch/sh/boot/zImage
p1498
ss(Vimage
p1499
g1488
tp1500
(dp1501
Vinstall-stem
p1502
Vvmlinuz
p1503
ss(Vdescription
p1504
g1488
NVsh7751r
p1505
tp1506
(dp1507
Vhardware
p1508
Vsh7751r
p1509
sVhardware-long
p1510
VRenesas SH7751R R2D plus board
p1511
ss(Vdescription
p1512
g1488
NVsh7785lcr
p1513
tp1514
(dp1515
Vhardware
p1516
Vsh7785lcr
p1517
sVhardware-long
p1518
VRenesas SH7785 reference board
p1519
ss(Vimage
p1520
g1488
NVsh7785lcr
p1521
tp1522
(dp1523
Vrecommends
p1524
(lp1525
Vu-boot-tools
p1526
asVcheck-size
p1527
I4194304
ss(g222
g1488
g191
tp1528
(dp1529
g225
(lp1530
Vsh7751r
p1531
aVsh7785lcr
p1532
asg229
I01
ss(Vbase
p1533
Vsparc
p1534
tp1535
(dp1536
Vkernel-arch
p1537
Vsparc
p1538
sVfeaturesets
p1539
(lp1540
ss(Vbase
p1541
Vsparc64
p1542
tp1543
(dp1544
Vdefault-flavour
p1545
Vsparc64-smp
p1546
sVkernel-arch
p1547
Vsparc
p1548
sg189
(lp1549
g191
ass(Vbuild
p1550
g1542
tp1551
(dp1552
Vimage-file
p1553
Vvmlinux
p1554
ss(Vimage
p1555
g1542
tp1556
(dp1557
Vconfigs
p1558
(lp1559
sVbootloaders
p1560
(lp1561
Vgrub-ieee1275
p1562
asVsuggests
p1563
(lp1564
Vfdutils
p1565
asVinstall-stem
p1566
Vvmlinux
p1567
ss(Vdescription
p1568
g1542
NVsparc64
p1569
tp1570
(dp1571
Vhardware
p1572
Vuniprocessor 64-bit UltraSPARC
p1573
ss(Vimage
p1574
g1542
NVsparc64
p1575
tp1576
(dp1577
Vconfigs
p1578
(lp1579
Vkernelarch-sparc/config-up
p1580
ass(Vdescription
p1581
g1542
NVsparc64-smp
p1582
tp1583
(dp1584
Vhardware
p1585
Vmultiprocessor 64-bit UltraSPARC
p1586
ss(Vimage
p1587
g1542
NVsparc64-smp
p1588
tp1589
(dp1590
Vconfigs
p1591
(lp1592
Vkernelarch-sparc/config-smp
p1593
ass(g222
g1542
g191
tp1594
(dp1595
g225
(lp1596
Vsparc64
p1597
aVsparc64-smp
p1598
asg229
I01
ss(Vbase
p1599
Vx32
p1600
tp1601
(dp1602
Vkernel-arch
p1603
Vx86
p1604
sVfeaturesets
p1605
(lp1606
ss(Vabi
p1607
NVrt
p1608
tp1609
(dp1610
Vignore-changes
p1611
(lp1612
V*
p1613
ass(Vdescription
p1614
Ng1608
tp1615
(dp1616
Vpart-long-rt
p1617
VThis kernel includes the PREEMPT_RT realtime patch set.
p1618
sVpart-short-rt
p1619
VPREEMPT_RT
p1620
sVparts
p1621
(lp1622
Vrt
p1623
ass(Vversion
p1624
tp1625
(dp1626
Vsource
p1627
V6.1.27-1kali1
p1628
sVupstream
p1629
V6.1
p1630
sVabiname_base
p1631
V6.1.0
p1632
sVabiname
p1633
V6.1.0-kali9
p1634
ss.